

Microchip MPLAB XC8 Assembler V2.20 build 20200408173844 
                                                                                               Mon Jan 04 21:38:22 2021

Microchip MPLAB XC8 C Compiler v2.20 (Free license) build 20200408173844 Og1 
     1                           	processor	18F4550
     2                           	fnconf	rparam,??,?,0
     3                           	pagewidth 120
     4                           	opt	flic
     5                           	psect	smallconst,global,reloc=2,class=SMALLCONST,delta=1,noexec
     6                           	psect	cinit,global,reloc=2,class=CODE,delta=1
     7                           	psect	bssCOMRAM,global,class=COMRAM,space=1,delta=1,lowdata,noexec
     8                           	psect	bssBANK0,global,class=BANK0,space=1,delta=1,lowdata,noexec
     9                           	psect	bssBANK1,global,class=BANK1,space=1,delta=1,lowdata,noexec
    10                           	psect	cstackBANK1,global,class=BANK1,space=1,delta=1,lowdata,noexec
    11                           	psect	cstackBANK0,global,class=BANK0,space=1,delta=1,lowdata,noexec
    12                           	psect	cstackCOMRAM,global,class=COMRAM,space=1,delta=1,lowdata,noexec
    13                           	psect	text0,global,reloc=2,class=CODE,delta=1
    14                           	psect	text1,global,reloc=2,class=CODE,delta=1
    15                           	psect	text2,global,reloc=2,class=CODE,delta=1
    16                           	psect	text3,global,reloc=2,class=CODE,delta=1
    17                           	psect	text4,global,reloc=2,class=CODE,delta=1
    18                           	psect	text5,global,reloc=2,class=CODE,delta=1
    19                           	psect	intcodelo,global,reloc=2,class=CODE,delta=1
    20                           	psect	intcode,global,reloc=2,class=CODE,delta=1
    21                           	psect	intcode_body,global,reloc=2,class=CODE,delta=1
    22                           	psect	text8,global,reloc=2,class=CODE,delta=1,group=3
    23                           	psect	text9,global,reloc=2,class=CODE,delta=1,group=1
    24                           	psect	text10,global,reloc=2,class=CODE,delta=1,group=1
    25                           	psect	text11,global,reloc=2,class=CODE,delta=1,group=3
    26                           	psect	text12,global,reloc=2,class=CODE,delta=1,group=1
    27                           	psect	text13,global,reloc=2,class=CODE,delta=1,group=3
    28                           	psect	text14,global,reloc=2,class=CODE,delta=1,group=3
    29                           	psect	text15,global,reloc=2,class=CODE,delta=1,group=3
    30                           	psect	text16,global,reloc=2,class=CODE,delta=1,group=1
    31                           	psect	text17,global,reloc=2,class=CODE,delta=1,group=3
    32                           	psect	text18,global,reloc=2,class=CODE,delta=1,group=3
    33                           	psect	text19,global,reloc=2,class=CODE,delta=1,group=3
    34                           	psect	text20,global,reloc=2,class=CODE,delta=1,group=3
    35                           	psect	text21,global,reloc=2,class=CODE,delta=1,group=3
    36                           	psect	text22,global,reloc=2,class=CODE,delta=1,group=3
    37                           	psect	text23,global,reloc=2,class=CODE,delta=1,group=2
    38                           	psect	text24,global,reloc=2,class=CODE,delta=1,group=2
    39                           	psect	text25,global,reloc=2,class=CODE,delta=1,group=2
    40                           	psect	text26,global,reloc=2,class=CODE,delta=1,group=2
    41                           	psect	text27,global,reloc=2,class=CODE,delta=1,group=2
    42                           	psect	text28,global,reloc=2,class=CODE,delta=1,group=2
    43                           	psect	text29,global,reloc=2,class=CODE,delta=1,group=2
    44                           	psect	text30,global,reloc=2,class=CODE,delta=1,group=2
    45                           	psect	text31,global,reloc=2,class=CODE,delta=1,group=2
    46                           	psect	text32,global,reloc=2,class=CODE,delta=1,group=2
    47                           	psect	text33,global,reloc=2,class=CODE,delta=1,group=3
    48                           	psect	text34,global,reloc=2,class=CODE,delta=1,group=3
    49                           	psect	text35,global,reloc=2,class=CODE,delta=1,group=3
    50                           	psect	text36,global,reloc=2,class=CODE,delta=1,group=2
    51                           	psect	text37,global,reloc=2,class=CODE,delta=1,group=2
    52                           	psect	text38,global,reloc=2,class=CODE,delta=1
    53                           	psect	text39,global,reloc=2,class=CODE,delta=1
    54                           	psect	text40,global,reloc=2,class=CODE,delta=1
    55                           	psect	text41,global,reloc=2,class=CODE,delta=1
    56                           	psect	intsave_regs,global,class=BIGRAM,space=1,delta=1,noexec
    57                           	psect	rparam,global,class=COMRAM,space=1,delta=1,noexec
    58                           	psect	temp,global,ovrld,common,class=COMRAM,space=1,delta=1
    59                           	psect	idloc,global,abs,ovrld,class=IDLOC,space=5,delta=1,noexec
    60                           	psect	config,global,abs,ovrld,class=CONFIG,space=4,delta=1,noexec
    61  0000                     
    62                           ; Version 2.20
    63                           ; Generated 12/02/2020 GMT
    64                           ; 
    65                           ; Copyright © 2020, Microchip Technology Inc. and its subsidiaries ("Microchip")
    66                           ; All rights reserved.
    67                           ; 
    68                           ; This software is developed by Microchip Technology Inc. and its subsidiaries ("Microch
      +                          ip").
    69                           ; 
    70                           ; Redistribution and use in source and binary forms, with or without modification, are
    71                           ; permitted provided that the following conditions are met:
    72                           ; 
    73                           ;     1. Redistributions of source code must retain the above copyright notice, this lis
      +                          t of
    74                           ;        conditions and the following disclaimer.
    75                           ; 
    76                           ;     2. Redistributions in binary form must reproduce the above copyright notice, this 
      +                          list
    77                           ;        of conditions and the following disclaimer in the documentation and/or other
    78                           ;        materials provided with the distribution.
    79                           ; 
    80                           ;     3. Microchip's name may not be used to endorse or promote products derived from th
      +                          is
    81                           ;        software without specific prior written permission.
    82                           ; 
    83                           ; THIS SOFTWARE IS PROVIDED BY MICROCHIP "AS IS" AND ANY EXPRESS OR IMPLIED WARRANTIES,
    84                           ; INCLUDING, BUT NOT LIMITED TO, THE IMPLIED WARRANTIES OF MERCHANTABILITY AND FITNESS F
      +                          OR
    85                           ; PURPOSE ARE DISCLAIMED.  IN NO EVENT SHALL MICROCHIP BE LIABLE FOR ANY DIRECT, INDIREC
      +                          T,
    86                           ; INCIDENTAL, SPECIAL, EXEMPLARY, OR CONSEQUENTIAL DAMAGES (INCLUDING BUT NOT LIMITED TO
    87                           ; PROCUREMENT OF SUBSTITUTE GOODS OR SERVICES; LOSS OF USE, DATA OR PROFITS; OR BUSINESS
    88                           ; INTERRUPTION) HOWSOEVER CAUSED AND ON ANY THEORY OF LIABILITY, WHETHER IN CONTRACT, ST
      +                          RICT
    89                           ; LIABILITY, OR TORT (INCLUDING NEGLIGENCE OR OTHERWISE) ARISING IN ANY WAY OUT OF THE U
      +                          SE OF
    90                           ; THIS SOFTWARE, EVEN IF ADVISED OF THE POSSIBILITY OF SUCH DAMAGE.
    91                           ; 
    92                           ; 
    93                           ; Code-generator required, PIC18F4550 Definitions
    94                           ; 
    95                           ; SFR Addresses
    96  0000                     _TMR0	set	4054
    97  0000                     _ADRES	set	4035
    98  0000                     _INTCON2bits	set	4081
    99  0000                     _TMR0L	set	4054
   100  0000                     _T0CONbits	set	4053
   101  0000                     _LATD	set	3980
   102  0000                     _TRISD	set	3989
   103  0000                     _LATDbits	set	3980
   104  0000                     _INTCONbits	set	4082
   105  0000                     _RCONbits	set	4048
   106  0000                     _ADCON2bits	set	4032
   107  0000                     _IPR1bits	set	3999
   108  0000                     _PIE1bits	set	3997
   109  0000                     _PIR1bits	set	3998
   110  0000                     _ADCON0bits	set	4034
   111  0000                     _ADCON1bits	set	4033
   112                           
   113                           	psect	smallconst
   114  000800                     __psmallconst:
   115                           	callstack 0
   116  000800  00                 	db	0
   117  000801                     STR_1:
   118  000801  45                 	db	69	;'E'
   119  000802  73                 	db	115	;'s'
   120  000803  3A                 	db	58	;':'
   121  000804  20                 	db	32
   122  000805  25                 	db	37
   123  000806  30                 	db	48	;'0'
   124  000807  2E                 	db	46
   125  000808  32                 	db	50	;'2'
   126  000809  66                 	db	102	;'f'
   127  00080A  20                 	db	32
   128  00080B  56                 	db	86	;'V'
   129  00080C  00                 	db	0
   130  00080D                     STR_2:
   131  00080D  49                 	db	73	;'I'
   132  00080E  4E                 	db	78	;'N'
   133  00080F  46                 	db	70	;'F'
   134  000810  00                 	db	0
   135  000811                     STR_6:
   136  000811  4E                 	db	78	;'N'
   137  000812  41                 	db	65	;'A'
   138  000813  4E                 	db	78	;'N'
   139  000814  00                 	db	0
   140  000815                     STR_3:
   141  000815  69                 	db	105	;'i'
   142  000816  6E                 	db	110	;'n'
   143  000817  66                 	db	102	;'f'
   144  000818  00                 	db	0
   145  000819                     STR_7:
   146  000819  6E                 	db	110	;'n'
   147  00081A  61                 	db	97	;'a'
   148  00081B  6E                 	db	110	;'n'
   149  00081C  00                 	db	0
   150  00081D                     STR_10:
   151  00081D  6C                 	db	108	;'l'
   152  00081E  66                 	db	102	;'f'
   153  00081F  00                 	db	0
   154  000820  00                 	db	0	; dummy byte at the end
   155  0000                     
   156                           ; #config settings
   157                           
   158                           	psect	cinit
   159  00389A                     __pcinit:
   160                           	callstack 0
   161  00389A                     start_initialization:
   162                           	callstack 0
   163  00389A                     __initialization:
   164                           	callstack 0
   165                           
   166                           ; Clear objects allocated to BANK1 (80 bytes)
   167  00389A  EE01  F000         	lfsr	0,__pbssBANK1
   168  00389E  0E50               	movlw	80
   169  0038A0                     clear_0:
   170  0038A0  6AEE               	clrf	postinc0,c
   171  0038A2  06E8               	decf	wreg,f,c
   172  0038A4  E1FD               	bnz	clear_0
   173                           
   174                           ; Clear objects allocated to BANK0 (33 bytes)
   175  0038A6  EE00  F0B8         	lfsr	0,__pbssBANK0
   176  0038AA  0E21               	movlw	33
   177  0038AC                     clear_1:
   178  0038AC  6AEE               	clrf	postinc0,c
   179  0038AE  06E8               	decf	wreg,f,c
   180  0038B0  E1FD               	bnz	clear_1
   181                           
   182                           ; Clear objects allocated to COMRAM (1 bytes)
   183  0038B2  6A5E               	clrf	__pbssCOMRAM& (0+255),c
   184  0038B4                     end_of_initialization:
   185                           	callstack 0
   186  0038B4                     __end_of__initialization:
   187                           	callstack 0
   188  0038B4  905F               	bcf	int$flags,0,c	;clear compiler interrupt flag (level 1)
   189  0038B6  925F               	bcf	int$flags,1,c	;clear compiler interrupt flag (level 2)
   190  0038B8  0E00               	movlw	low (__Lmediumconst shr (0+16))
   191  0038BA  6EF8               	movwf	tblptru,c
   192  0038BC  0100               	movlb	0
   193  0038BE  EF74  F01C         	goto	_main	;jump to C main() function
   194                           
   195                           	psect	bssCOMRAM
   196  00005E                     __pbssCOMRAM:
   197                           	callstack 0
   198  00005E                     _x:
   199                           	callstack 0
   200  00005E                     	ds	1
   201                           
   202                           	psect	bssBANK0
   203  0000B8                     __pbssBANK0:
   204                           	callstack 0
   205  0000B8                     floorf@F524:
   206                           	callstack 0
   207  0000B8                     	ds	4
   208  0000BC                     ___fpclassifyf@F463:
   209                           	callstack 0
   210  0000BC                     	ds	4
   211  0000C0                     _Vin:
   212                           	callstack 0
   213  0000C0                     	ds	4
   214  0000C4                     _nout:
   215                           	callstack 0
   216  0000C4                     	ds	2
   217  0000C6                     _width:
   218                           	callstack 0
   219  0000C6                     	ds	2
   220  0000C8                     _prec:
   221                           	callstack 0
   222  0000C8                     	ds	2
   223  0000CA                     _flags:
   224                           	callstack 0
   225  0000CA                     	ds	2
   226  0000CC                     _valor_adc:
   227                           	callstack 0
   228  0000CC                     	ds	2
   229  0000CE                     _y:
   230                           	callstack 0
   231  0000CE                     	ds	1
   232  0000CF                     _datos:
   233                           	callstack 0
   234  0000CF                     	ds	10
   235                           
   236                           	psect	bssBANK1
   237  000100                     __pbssBANK1:
   238                           	callstack 0
   239  000100                     _dbuf:
   240                           	callstack 0
   241  000100                     	ds	80
   242                           
   243                           	psect	cstackBANK1
   244  000150                     __pcstackBANK1:
   245                           	callstack 0
   246  000150                     ??_TMR0_ISR:
   247                           
   248                           ; 1 bytes @ 0x0
   249  000150                     	ds	4
   250  000154                     ??_LCD_Comando:
   251  000154                     
   252                           ; 1 bytes @ 0x4
   253  000154                     	ds	1
   254  000155                     LCD_Comando@cmd:
   255                           	callstack 0
   256                           
   257                           ; 1 bytes @ 0x5
   258  000155                     	ds	1
   259  000156                     
   260                           ; 1 bytes @ 0x6
   261                           
   262                           	psect	cstackBANK0
   263  000060                     __pcstackBANK0:
   264                           	callstack 0
   265  000060                     efgtoa@ou:
   266                           	callstack 0
   267                           
   268                           ; 4 bytes @ 0x0
   269  000060                     	ds	4
   270  000064                     _efgtoa$1321:
   271                           	callstack 0
   272                           
   273                           ; 2 bytes @ 0x4
   274  000064                     	ds	2
   275  000066                     _efgtoa$1322:
   276                           	callstack 0
   277                           
   278                           ; 2 bytes @ 0x6
   279  000066                     	ds	2
   280  000068                     _efgtoa$1327:
   281                           	callstack 0
   282                           
   283                           ; 2 bytes @ 0x8
   284  000068                     	ds	2
   285  00006A                     _efgtoa$1331:
   286                           	callstack 0
   287                           
   288                           ; 2 bytes @ 0xA
   289  00006A                     	ds	2
   290  00006C                     _efgtoa$1332:
   291                           	callstack 0
   292                           
   293                           ; 2 bytes @ 0xC
   294  00006C                     	ds	2
   295  00006E                     _efgtoa$1333:
   296                           	callstack 0
   297                           
   298                           ; 2 bytes @ 0xE
   299  00006E                     	ds	2
   300  000070                     efgtoa@t:
   301                           	callstack 0
   302                           
   303                           ; 2 bytes @ 0x10
   304  000070                     	ds	2
   305  000072                     efgtoa@pp:
   306                           	callstack 0
   307                           
   308                           ; 2 bytes @ 0x12
   309  000072                     	ds	2
   310  000074                     efgtoa@m:
   311                           	callstack 0
   312                           
   313                           ; 2 bytes @ 0x14
   314  000074                     	ds	2
   315  000076                     efgtoa@ne:
   316                           	callstack 0
   317                           
   318                           ; 2 bytes @ 0x16
   319  000076                     	ds	2
   320  000078                     efgtoa@d:
   321                           	callstack 0
   322                           
   323                           ; 2 bytes @ 0x18
   324  000078                     	ds	2
   325  00007A                     efgtoa@sign:
   326                           	callstack 0
   327                           
   328                           ; 2 bytes @ 0x1A
   329  00007A                     	ds	2
   330  00007C                     efgtoa@p:
   331                           	callstack 0
   332                           
   333                           ; 2 bytes @ 0x1C
   334  00007C                     	ds	2
   335  00007E                     efgtoa@nmode:
   336                           	callstack 0
   337                           
   338                           ; 1 bytes @ 0x1E
   339  00007E                     	ds	1
   340  00007F                     efgtoa@w:
   341                           	callstack 0
   342                           
   343                           ; 2 bytes @ 0x1F
   344  00007F                     	ds	2
   345  000081                     efgtoa@mode:
   346                           	callstack 0
   347                           
   348                           ; 1 bytes @ 0x21
   349  000081                     	ds	1
   350  000082                     efgtoa@h:
   351                           	callstack 0
   352                           
   353                           ; 4 bytes @ 0x22
   354  000082                     	ds	4
   355  000086                     efgtoa@l:
   356                           	callstack 0
   357                           
   358                           ; 4 bytes @ 0x26
   359  000086                     	ds	4
   360  00008A                     efgtoa@i:
   361                           	callstack 0
   362                           
   363                           ; 2 bytes @ 0x2A
   364  00008A                     	ds	2
   365  00008C                     efgtoa@g:
   366                           	callstack 0
   367                           
   368                           ; 4 bytes @ 0x2C
   369  00008C                     	ds	4
   370  000090                     efgtoa@e:
   371                           	callstack 0
   372                           
   373                           ; 2 bytes @ 0x30
   374  000090                     	ds	2
   375  000092                     efgtoa@n:
   376                           	callstack 0
   377                           
   378                           ; 2 bytes @ 0x32
   379  000092                     	ds	2
   380  000094                     efgtoa@u:
   381                           	callstack 0
   382                           
   383                           ; 4 bytes @ 0x34
   384  000094                     	ds	4
   385  000098                     vfprintf@cfmt:
   386                           	callstack 0
   387                           
   388                           ; 2 bytes @ 0x38
   389  000098                     	ds	2
   390  00009A                     ?_sprintf:
   391                           	callstack 0
   392  00009A                     sprintf@s:
   393                           	callstack 0
   394                           
   395                           ; 2 bytes @ 0x3A
   396  00009A                     	ds	2
   397  00009C                     sprintf@fmt:
   398                           	callstack 0
   399                           
   400                           ; 2 bytes @ 0x3C
   401  00009C                     	ds	8
   402  0000A4                     sprintf@ap:
   403                           	callstack 0
   404                           
   405                           ; 2 bytes @ 0x44
   406  0000A4                     	ds	2
   407  0000A6                     sprintf@f:
   408                           	callstack 0
   409                           
   410                           ; 6 bytes @ 0x46
   411  0000A6                     	ds	6
   412  0000AC                     ??_ADC_ISR:
   413                           
   414                           ; 1 bytes @ 0x4C
   415  0000AC                     	ds	12
   416                           
   417                           	psect	cstackCOMRAM
   418  000001                     __pcstackCOMRAM:
   419                           	callstack 0
   420  000001                     ??_LCD_Caracter:
   421  000001                     ??i2_LCD_Comando:
   422  000001                     ?_strlen:
   423                           	callstack 0
   424  000001                     ?___fpclassifyf:
   425                           	callstack 0
   426  000001                     ?_isupper:
   427                           	callstack 0
   428  000001                     ?_isdigit:
   429                           	callstack 0
   430  000001                     ?_strncmp:
   431                           	callstack 0
   432  000001                     ?_isspace:
   433                           	callstack 0
   434  000001                     ?___wmul:
   435                           	callstack 0
   436  000001                     ?___awdiv:
   437                           	callstack 0
   438  000001                     ?___awmod:
   439                           	callstack 0
   440  000001                     ?___fladd:
   441                           	callstack 0
   442  000001                     ?___fldiv:
   443                           	callstack 0
   444  000001                     ?___flneg:
   445                           	callstack 0
   446  000001                     ?___fltol:
   447                           	callstack 0
   448  000001                     ?___xxtofl:
   449                           	callstack 0
   450  000001                     ___wmul@multiplier:
   451                           	callstack 0
   452  000001                     ___awdiv@dividend:
   453                           	callstack 0
   454  000001                     ___awmod@dividend:
   455                           	callstack 0
   456  000001                     isdigit@c:
   457                           	callstack 0
   458  000001                     isspace@c:
   459                           	callstack 0
   460  000001                     isupper@c:
   461                           	callstack 0
   462  000001                     fputc@c:
   463                           	callstack 0
   464  000001                     strcpy@dest:
   465                           	callstack 0
   466  000001                     strlen@s:
   467                           	callstack 0
   468  000001                     strncmp@_l:
   469                           	callstack 0
   470  000001                     ___fleq@ff1:
   471                           	callstack 0
   472  000001                     ___flneg@f1:
   473                           	callstack 0
   474  000001                     ___fltol@f1:
   475                           	callstack 0
   476  000001                     ___fladd@b:
   477                           	callstack 0
   478  000001                     ___fldiv@b:
   479                           	callstack 0
   480  000001                     ___xxtofl@val:
   481                           	callstack 0
   482  000001                     ___fpclassifyf@x:
   483                           	callstack 0
   484                           
   485                           ; 4 bytes @ 0x0
   486  000001                     	ds	1
   487  000002                     LCD_Caracter@data:
   488                           	callstack 0
   489  000002                     i2LCD_Comando@cmd:
   490                           	callstack 0
   491                           
   492                           ; 1 bytes @ 0x1
   493  000002                     	ds	1
   494  000003                     ??_isupper:
   495  000003                     ??_isdigit:
   496  000003                     ??_isspace:
   497  000003                     LCD_XY@x:
   498                           	callstack 0
   499  000003                     LCD_Cadena@dat:
   500                           	callstack 0
   501  000003                     ___wmul@multiplicand:
   502                           	callstack 0
   503  000003                     ___awdiv@divisor:
   504                           	callstack 0
   505  000003                     ___awmod@divisor:
   506                           	callstack 0
   507  000003                     fputc@fp:
   508                           	callstack 0
   509  000003                     strcpy@src:
   510                           	callstack 0
   511  000003                     strlen@a:
   512                           	callstack 0
   513  000003                     strncmp@_r:
   514                           	callstack 0
   515                           
   516                           ; 2 bytes @ 0x2
   517  000003                     	ds	2
   518  000005                     ??_fputc:
   519  000005                     ??___fpclassifyf:
   520  000005                     ??_strcpy:
   521  000005                     ??___fltol:
   522  000005                     ??___xxtofl:
   523  000005                     ___awdiv@counter:
   524                           	callstack 0
   525  000005                     ___awmod@counter:
   526                           	callstack 0
   527  000005                     LCD_XY@y:
   528                           	callstack 0
   529  000005                     ___wmul@product:
   530                           	callstack 0
   531  000005                     strncmp@n:
   532                           	callstack 0
   533  000005                     ___fleq@ff2:
   534                           	callstack 0
   535  000005                     ___fladd@a:
   536                           	callstack 0
   537  000005                     ___fldiv@a:
   538                           	callstack 0
   539                           
   540                           ; 4 bytes @ 0x4
   541  000005                     	ds	1
   542  000006                     ___awdiv@sign:
   543                           	callstack 0
   544  000006                     ___awmod@sign:
   545                           	callstack 0
   546                           
   547                           ; 1 bytes @ 0x5
   548  000006                     	ds	1
   549  000007                     ??_strncmp:
   550  000007                     ?_tolower:
   551                           	callstack 0
   552  000007                     _isspace$1416:
   553                           	callstack 0
   554  000007                     ___awdiv@quotient:
   555                           	callstack 0
   556  000007                     strcpy@s:
   557                           	callstack 0
   558  000007                     tolower@c:
   559                           	callstack 0
   560                           
   561                           ; 2 bytes @ 0x6
   562  000007                     	ds	1
   563  000008                     ?_atoi:
   564                           	callstack 0
   565  000008                     atoi@s:
   566                           	callstack 0
   567  000008                     strncmp@l:
   568                           	callstack 0
   569                           
   570                           ; 2 bytes @ 0x7
   571  000008                     	ds	1
   572  000009                     ??___fladd:
   573  000009                     ??___fldiv:
   574  000009                     ??_tolower:
   575  000009                     ??___fleq:
   576  000009                     ___fltol@sign1:
   577                           	callstack 0
   578  000009                     ___xxtofl@sign:
   579                           	callstack 0
   580  000009                     ___fpclassifyf@e:
   581                           	callstack 0
   582  000009                     strcpy@d:
   583                           	callstack 0
   584                           
   585                           ; 2 bytes @ 0x8
   586  000009                     	ds	1
   587  00000A                     ??_atoi:
   588  00000A                     ___fltol@exp1:
   589                           	callstack 0
   590  00000A                     ___xxtofl@exp:
   591                           	callstack 0
   592  00000A                     fputs@s:
   593                           	callstack 0
   594  00000A                     strncmp@r:
   595                           	callstack 0
   596                           
   597                           ; 2 bytes @ 0x9
   598  00000A                     	ds	1
   599  00000B                     ___xxtofl@arg:
   600                           	callstack 0
   601  00000B                     ___fpclassifyf@u:
   602                           	callstack 0
   603                           
   604                           ; 4 bytes @ 0xA
   605  00000B                     	ds	1
   606  00000C                     fputs@fp:
   607                           	callstack 0
   608                           
   609                           ; 2 bytes @ 0xB
   610  00000C                     	ds	1
   611  00000D                     ___fladd@signs:
   612                           	callstack 0
   613  00000D                     _tolower$1480:
   614                           	callstack 0
   615  00000D                     ___fldiv@rem:
   616                           	callstack 0
   617                           
   618                           ; 4 bytes @ 0xC
   619  00000D                     	ds	1
   620  00000E                     ___fladd@aexp:
   621                           	callstack 0
   622  00000E                     fputs@c:
   623                           	callstack 0
   624  00000E                     atoi@neg:
   625                           	callstack 0
   626                           
   627                           ; 2 bytes @ 0xD
   628  00000E                     	ds	1
   629  00000F                     ?___flmul:
   630                           	callstack 0
   631  00000F                     ___fladd@bexp:
   632                           	callstack 0
   633  00000F                     fputs@i:
   634                           	callstack 0
   635  00000F                     ___flmul@b:
   636                           	callstack 0
   637                           
   638                           ; 4 bytes @ 0xE
   639  00000F                     	ds	1
   640  000010                     ___fladd@grs:
   641                           	callstack 0
   642  000010                     _atoi$1385:
   643                           	callstack 0
   644                           
   645                           ; 2 bytes @ 0xF
   646  000010                     	ds	1
   647  000011                     ?_pad:
   648                           	callstack 0
   649  000011                     ___fldiv@sign:
   650                           	callstack 0
   651  000011                     pad@fp:
   652                           	callstack 0
   653                           
   654                           ; 2 bytes @ 0x10
   655  000011                     	ds	1
   656  000012                     ___fldiv@new_exp:
   657                           	callstack 0
   658  000012                     _atoi$1387:
   659                           	callstack 0
   660                           
   661                           ; 2 bytes @ 0x11
   662  000012                     	ds	1
   663  000013                     pad@buf:
   664                           	callstack 0
   665  000013                     ___flmul@a:
   666                           	callstack 0
   667                           
   668                           ; 4 bytes @ 0x12
   669  000013                     	ds	1
   670  000014                     _atoi$1386:
   671                           	callstack 0
   672  000014                     ___fldiv@grs:
   673                           	callstack 0
   674                           
   675                           ; 4 bytes @ 0x13
   676  000014                     	ds	1
   677  000015                     pad@p:
   678                           	callstack 0
   679  000015                     atoi@n:
   680                           	callstack 0
   681                           
   682                           ; 2 bytes @ 0x14
   683  000015                     	ds	2
   684  000017                     ??___flmul:
   685  000017                     ??_pad:
   686                           
   687                           ; 1 bytes @ 0x16
   688  000017                     	ds	1
   689  000018                     ___fldiv@bexp:
   690                           	callstack 0
   691  000018                     pad@i:
   692                           	callstack 0
   693                           
   694                           ; 2 bytes @ 0x17
   695  000018                     	ds	1
   696  000019                     ___fldiv@aexp:
   697                           	callstack 0
   698                           
   699                           ; 1 bytes @ 0x18
   700  000019                     	ds	1
   701  00001A                     ?_floorf:
   702                           	callstack 0
   703  00001A                     pad@w:
   704                           	callstack 0
   705  00001A                     floorf@x:
   706                           	callstack 0
   707                           
   708                           ; 4 bytes @ 0x19
   709  00001A                     	ds	1
   710  00001B                     ___flmul@sign:
   711                           	callstack 0
   712                           
   713                           ; 1 bytes @ 0x1A
   714  00001B                     	ds	1
   715  00001C                     ___flmul@grs:
   716                           	callstack 0
   717                           
   718                           ; 4 bytes @ 0x1B
   719  00001C                     	ds	2
   720  00001E                     ??_floorf:
   721                           
   722                           ; 1 bytes @ 0x1D
   723  00001E                     	ds	2
   724  000020                     ___flmul@aexp:
   725                           	callstack 0
   726                           
   727                           ; 1 bytes @ 0x1F
   728  000020                     	ds	1
   729  000021                     ___flmul@bexp:
   730                           	callstack 0
   731                           
   732                           ; 1 bytes @ 0x20
   733  000021                     	ds	1
   734  000022                     ___flmul@prod:
   735                           	callstack 0
   736                           
   737                           ; 4 bytes @ 0x21
   738  000022                     	ds	2
   739  000024                     floorf@m:
   740                           	callstack 0
   741                           
   742                           ; 4 bytes @ 0x23
   743  000024                     	ds	2
   744  000026                     ___flmul@temp:
   745                           	callstack 0
   746                           
   747                           ; 2 bytes @ 0x25
   748  000026                     	ds	2
   749  000028                     ?___flsub:
   750                           	callstack 0
   751  000028                     floorf@e:
   752                           	callstack 0
   753  000028                     ___flge@ff1:
   754                           	callstack 0
   755  000028                     ___flsub@b:
   756                           	callstack 0
   757                           
   758                           ; 4 bytes @ 0x27
   759  000028                     	ds	2
   760  00002A                     floorf@u:
   761                           	callstack 0
   762                           
   763                           ; 4 bytes @ 0x29
   764  00002A                     	ds	2
   765  00002C                     ___flge@ff2:
   766                           	callstack 0
   767  00002C                     ___flsub@a:
   768                           	callstack 0
   769                           
   770                           ; 4 bytes @ 0x2B
   771  00002C                     	ds	4
   772  000030                     ??___flge:
   773                           
   774                           ; 1 bytes @ 0x2F
   775  000030                     	ds	4
   776  000034                     ?_efgtoa:
   777                           	callstack 0
   778  000034                     efgtoa@fp:
   779                           	callstack 0
   780                           
   781                           ; 2 bytes @ 0x33
   782  000034                     	ds	2
   783  000036                     efgtoa@f:
   784                           	callstack 0
   785                           
   786                           ; 4 bytes @ 0x35
   787  000036                     	ds	4
   788  00003A                     efgtoa@c:
   789                           	callstack 0
   790                           
   791                           ; 1 bytes @ 0x39
   792  00003A                     	ds	1
   793  00003B                     ??_efgtoa:
   794                           
   795                           ; 1 bytes @ 0x3A
   796  00003B                     	ds	5
   797  000040                     ?_vfpfcnvrt:
   798                           	callstack 0
   799  000040                     vfpfcnvrt@fp:
   800                           	callstack 0
   801                           
   802                           ; 2 bytes @ 0x3F
   803  000040                     	ds	2
   804  000042                     vfpfcnvrt@fmt:
   805                           	callstack 0
   806                           
   807                           ; 2 bytes @ 0x41
   808  000042                     	ds	2
   809  000044                     vfpfcnvrt@ap:
   810                           	callstack 0
   811                           
   812                           ; 2 bytes @ 0x43
   813  000044                     	ds	2
   814  000046                     ??_vfpfcnvrt:
   815                           
   816                           ; 1 bytes @ 0x45
   817  000046                     	ds	4
   818  00004A                     vfpfcnvrt@done:
   819                           	callstack 0
   820                           
   821                           ; 2 bytes @ 0x49
   822  00004A                     	ds	2
   823  00004C                     _vfpfcnvrt$1347:
   824                           	callstack 0
   825                           
   826                           ; 2 bytes @ 0x4B
   827  00004C                     	ds	2
   828  00004E                     _vfpfcnvrt$1351:
   829                           	callstack 0
   830                           
   831                           ; 2 bytes @ 0x4D
   832  00004E                     	ds	2
   833  000050                     vfpfcnvrt@f:
   834                           	callstack 0
   835                           
   836                           ; 4 bytes @ 0x4F
   837  000050                     	ds	4
   838  000054                     vfpfcnvrt@ct:
   839                           	callstack 0
   840                           
   841                           ; 3 bytes @ 0x53
   842  000054                     	ds	3
   843  000057                     vfpfcnvrt@c:
   844                           	callstack 0
   845                           
   846                           ; 1 bytes @ 0x56
   847  000057                     	ds	1
   848  000058                     ?_vfprintf:
   849                           	callstack 0
   850  000058                     vfprintf@fp:
   851                           	callstack 0
   852                           
   853                           ; 2 bytes @ 0x57
   854  000058                     	ds	2
   855  00005A                     vfprintf@fmt:
   856                           	callstack 0
   857                           
   858                           ; 2 bytes @ 0x59
   859  00005A                     	ds	2
   860  00005C                     vfprintf@ap:
   861                           	callstack 0
   862                           
   863                           ; 2 bytes @ 0x5B
   864  00005C                     	ds	2
   865  00005E                     
   866                           ; 1 bytes @ 0x5D
   867 ;;
   868 ;;Main: autosize = 0, tempsize = 0, incstack = 0, save=0
   869 ;;
   870 ;; *************** function _main *****************
   871 ;; Defined at:
   872 ;;		line 22 in file "Programa_principal.c"
   873 ;; Parameters:    Size  Location     Type
   874 ;;		None
   875 ;; Auto vars:     Size  Location     Type
   876 ;;		None
   877 ;; Return value:  Size  Location     Type
   878 ;;                  1    wreg      void 
   879 ;; Registers used:
   880 ;;		wreg, status,2, status,0, cstack
   881 ;; Tracked objects:
   882 ;;		On entry : 0/0
   883 ;;		On exit  : 0/0
   884 ;;		Unchanged: 0/0
   885 ;; Data sizes:     COMRAM   BANK0   BANK1   BANK2   BANK3   BANK4   BANK5   BANK6   BANK7
   886 ;;      Params:         0       0       0       0       0       0       0       0       0
   887 ;;      Locals:         0       0       0       0       0       0       0       0       0
   888 ;;      Temps:          0       0       0       0       0       0       0       0       0
   889 ;;      Totals:         0       0       0       0       0       0       0       0       0
   890 ;;Total ram usage:        0 bytes
   891 ;; Hardware stack levels required when called:   12
   892 ;; This function calls:
   893 ;;		_ADC_Init
   894 ;;		_INT_Init
   895 ;;		_LCD_Init
   896 ;;		_Timer0_Init
   897 ;; This function is called by:
   898 ;;		Startup code after reset
   899 ;; This function uses a non-reentrant model
   900 ;;
   901                           
   902                           	psect	text0
   903  0038E8                     __ptext0:
   904                           	callstack 0
   905  0038E8                     _main:
   906                           	callstack 19
   907  0038E8                     
   908                           ;Programa_principal.c: 23:     ADC_Init();
   909  0038E8  EC36  F01C         	call	_ADC_Init	;wreg free
   910  0038EC                     
   911                           ;Programa_principal.c: 24:     LCD_Init();
   912  0038EC  ECEE  F01B         	call	_LCD_Init	;wreg free
   913  0038F0                     
   914                           ;Programa_principal.c: 25:     Timer0_Init();
   915  0038F0  EC80  F01C         	call	_Timer0_Init	;wreg free
   916  0038F4                     
   917                           ;Programa_principal.c: 26:     INT_Init();
   918  0038F4  EC8C  F01C         	call	_INT_Init	;wreg free
   919  0038F8                     l113:
   920  0038F8  EF7C  F01C         	goto	l113
   921  0038FC  EF3C  F000         	goto	start
   922  003900                     __end_of_main:
   923                           	callstack 0
   924                           
   925 ;; *************** function _Timer0_Init *****************
   926 ;; Defined at:
   927 ;;		line 20 in file "Timer0_8bit.c"
   928 ;; Parameters:    Size  Location     Type
   929 ;;		None
   930 ;; Auto vars:     Size  Location     Type
   931 ;;		None
   932 ;; Return value:  Size  Location     Type
   933 ;;                  1    wreg      void 
   934 ;; Registers used:
   935 ;;		wreg, status,2
   936 ;; Tracked objects:
   937 ;;		On entry : 0/0
   938 ;;		On exit  : 0/0
   939 ;;		Unchanged: 0/0
   940 ;; Data sizes:     COMRAM   BANK0   BANK1   BANK2   BANK3   BANK4   BANK5   BANK6   BANK7
   941 ;;      Params:         0       0       0       0       0       0       0       0       0
   942 ;;      Locals:         0       0       0       0       0       0       0       0       0
   943 ;;      Temps:          0       0       0       0       0       0       0       0       0
   944 ;;      Totals:         0       0       0       0       0       0       0       0       0
   945 ;;Total ram usage:        0 bytes
   946 ;; Hardware stack levels used:    1
   947 ;; Hardware stack levels required when called:   10
   948 ;; This function calls:
   949 ;;		Nothing
   950 ;; This function is called by:
   951 ;;		_main
   952 ;; This function uses a non-reentrant model
   953 ;;
   954                           
   955                           	psect	text1
   956  003900                     __ptext1:
   957                           	callstack 0
   958  003900                     _Timer0_Init:
   959                           	callstack 20
   960  003900                     
   961                           ;Timer0_8bit.c: 21:     T0CONbits.T0CS = 0;
   962  003900  9AD5               	bcf	213,5,c	;volatile
   963                           
   964                           ;Timer0_8bit.c: 22:     T0CONbits.T08BIT = 1;
   965  003902  8CD5               	bsf	213,6,c	;volatile
   966                           
   967                           ;Timer0_8bit.c: 23:     T0CONbits.PSA = 0;
   968  003904  96D5               	bcf	213,3,c	;volatile
   969  003906                     
   970                           ;Timer0_8bit.c: 24:     T0CONbits.T0PS = 0b111;
   971  003906  0E07               	movlw	7
   972  003908  12D5               	iorwf	213,f,c	;volatile
   973                           
   974                           ;Timer0_8bit.c: 25:     TMR0L = 236;
   975  00390A  0EEC               	movlw	236
   976  00390C  6ED6               	movwf	214,c	;volatile
   977  00390E                     
   978                           ;Timer0_8bit.c: 26:     INTCONbits.TMR0IE = 1;
   979  00390E  8AF2               	bsf	242,5,c	;volatile
   980  003910                     
   981                           ;Timer0_8bit.c: 27:     INTCONbits.TMR0IF = 0;
   982  003910  94F2               	bcf	242,2,c	;volatile
   983  003912                     
   984                           ;Timer0_8bit.c: 28:     INTCON2bits.TMR0IP = 0;
   985  003912  94F1               	bcf	241,2,c	;volatile
   986  003914                     
   987                           ;Timer0_8bit.c: 29:     T0CONbits.TMR0ON = 1;
   988  003914  8ED5               	bsf	213,7,c	;volatile
   989  003916  0012               	return		;funcret
   990  003918                     __end_of_Timer0_Init:
   991                           	callstack 0
   992                           
   993 ;; *************** function _LCD_Init *****************
   994 ;; Defined at:
   995 ;;		line 6 in file "LCD_4bits.c"
   996 ;; Parameters:    Size  Location     Type
   997 ;;		None
   998 ;; Auto vars:     Size  Location     Type
   999 ;;		None
  1000 ;; Return value:  Size  Location     Type
  1001 ;;                  1    wreg      void 
  1002 ;; Registers used:
  1003 ;;		wreg, status,2, status,0, cstack
  1004 ;; Tracked objects:
  1005 ;;		On entry : 0/0
  1006 ;;		On exit  : 0/0
  1007 ;;		Unchanged: 0/0
  1008 ;; Data sizes:     COMRAM   BANK0   BANK1   BANK2   BANK3   BANK4   BANK5   BANK6   BANK7
  1009 ;;      Params:         0       0       0       0       0       0       0       0       0
  1010 ;;      Locals:         0       0       0       0       0       0       0       0       0
  1011 ;;      Temps:          0       0       0       0       0       0       0       0       0
  1012 ;;      Totals:         0       0       0       0       0       0       0       0       0
  1013 ;;Total ram usage:        0 bytes
  1014 ;; Hardware stack levels used:    1
  1015 ;; Hardware stack levels required when called:   11
  1016 ;; This function calls:
  1017 ;;		_LCD_Comando
  1018 ;; This function is called by:
  1019 ;;		_main
  1020 ;; This function uses a non-reentrant model
  1021 ;;
  1022                           
  1023                           	psect	text2
  1024  0037DC                     __ptext2:
  1025                           	callstack 0
  1026  0037DC                     _LCD_Init:
  1027                           	callstack 19
  1028  0037DC                     
  1029                           ;LCD_4bits.c: 7:     TRISD = 0x00;
  1030  0037DC  0E00               	movlw	0
  1031  0037DE  6E95               	movwf	149,c	;volatile
  1032  0037E0                     
  1033                           ;LCD_4bits.c: 9:     LCD_Comando(0x30);
  1034  0037E0  0E30               	movlw	48
  1035  0037E2  ECB3  F019         	call	_LCD_Comando
  1036  0037E6                     
  1037                           ;LCD_4bits.c: 11:     LCD_Comando(0x30);
  1038  0037E6  0E30               	movlw	48
  1039  0037E8  ECB3  F019         	call	_LCD_Comando
  1040  0037EC                     
  1041                           ;LCD_4bits.c: 13:     LCD_Comando(0x32);
  1042  0037EC  0E32               	movlw	50
  1043  0037EE  ECB3  F019         	call	_LCD_Comando
  1044  0037F2                     
  1045                           ;LCD_4bits.c: 14:     LCD_Comando(0x28);
  1046  0037F2  0E28               	movlw	40
  1047  0037F4  ECB3  F019         	call	_LCD_Comando
  1048  0037F8                     
  1049                           ;LCD_4bits.c: 15:     LCD_Comando(0x0C);
  1050  0037F8  0E0C               	movlw	12
  1051  0037FA  ECB3  F019         	call	_LCD_Comando
  1052  0037FE                     
  1053                           ;LCD_4bits.c: 16:     LCD_Comando(0x01);
  1054  0037FE  0E01               	movlw	1
  1055  003800  ECB3  F019         	call	_LCD_Comando
  1056  003804                     
  1057                           ;LCD_4bits.c: 17:     LCD_Comando(0x06);
  1058  003804  0E06               	movlw	6
  1059  003806  ECB3  F019         	call	_LCD_Comando
  1060  00380A  0012               	return		;funcret
  1061  00380C                     __end_of_LCD_Init:
  1062                           	callstack 0
  1063                           
  1064 ;; *************** function _LCD_Comando *****************
  1065 ;; Defined at:
  1066 ;;		line 20 in file "LCD_4bits.c"
  1067 ;; Parameters:    Size  Location     Type
  1068 ;;  cmd             1    wreg     unsigned char 
  1069 ;; Auto vars:     Size  Location     Type
  1070 ;;  cmd             1    5[BANK1 ] unsigned char 
  1071 ;; Return value:  Size  Location     Type
  1072 ;;                  1    wreg      void 
  1073 ;; Registers used:
  1074 ;;		wreg, status,2, status,0
  1075 ;; Tracked objects:
  1076 ;;		On entry : 0/0
  1077 ;;		On exit  : 0/0
  1078 ;;		Unchanged: 0/0
  1079 ;; Data sizes:     COMRAM   BANK0   BANK1   BANK2   BANK3   BANK4   BANK5   BANK6   BANK7
  1080 ;;      Params:         0       0       0       0       0       0       0       0       0
  1081 ;;      Locals:         0       0       1       0       0       0       0       0       0
  1082 ;;      Temps:          0       0       1       0       0       0       0       0       0
  1083 ;;      Totals:         0       0       2       0       0       0       0       0       0
  1084 ;;Total ram usage:        2 bytes
  1085 ;; Hardware stack levels used:    1
  1086 ;; Hardware stack levels required when called:   10
  1087 ;; This function calls:
  1088 ;;		Nothing
  1089 ;; This function is called by:
  1090 ;;		_LCD_Init
  1091 ;; This function uses a non-reentrant model
  1092 ;;
  1093                           
  1094                           	psect	text3
  1095  003366                     __ptext3:
  1096                           	callstack 0
  1097  003366                     _LCD_Comando:
  1098                           	callstack 19
  1099                           
  1100                           ;incstack = 0
  1101                           ;LCD_Comando@cmd stored from wreg
  1102  003366  0101               	movlb	1	; () banked
  1103  003368  6F55               	movwf	LCD_Comando@cmd& (0+255),b
  1104  00336A                     
  1105                           ;LCD_4bits.c: 22:     LATD = LATD & 0x0F;
  1106  00336A  508C               	movf	140,w,c	;volatile
  1107  00336C  0B0F               	andlw	15
  1108  00336E  6E8C               	movwf	140,c	;volatile
  1109                           
  1110                           ;LCD_4bits.c: 28:     LATD = LATD | (cmd & 0xF0);
  1111  003370  0101               	movlb	1	; () banked
  1112  003372  5155               	movf	LCD_Comando@cmd& (0+255),w,b
  1113  003374  0BF0               	andlw	240
  1114  003376  108C               	iorwf	140,w,c	;volatile
  1115  003378  6E8C               	movwf	140,c	;volatile
  1116  00337A                     
  1117                           ; BSR set to: 1
  1118                           ;LCD_4bits.c: 37:     LATDbits.LATD2 = 0;
  1119  00337A  948C               	bcf	140,2,c	;volatile
  1120  00337C                     
  1121                           ; BSR set to: 1
  1122                           ;LCD_4bits.c: 38:     _delay((unsigned long)((1)*(20000000UL/4000.0)));
  1123  00337C  0E07               	movlw	7
  1124  00337E  0101               	movlb	1	; () banked
  1125  003380  6F54               	movwf	??_LCD_Comando& (0+255),b
  1126  003382  0E7D               	movlw	125
  1127  003384                     u4877:
  1128  003384  2EE8               	decfsz	wreg,f,c
  1129  003386  D7FE               	bra	u4877
  1130  003388  2F54               	decfsz	??_LCD_Comando& (0+255),f,b
  1131  00338A  D7FC               	bra	u4877
  1132  00338C                     
  1133                           ;LCD_4bits.c: 39:     LATDbits.LATD3 = 1;
  1134  00338C  868C               	bsf	140,3,c	;volatile
  1135  00338E                     
  1136                           ;LCD_4bits.c: 40:     _delay((unsigned long)((1)*(20000000UL/4000.0)));
  1137  00338E  0E07               	movlw	7
  1138  003390  0101               	movlb	1	; () banked
  1139  003392  6F54               	movwf	??_LCD_Comando& (0+255),b
  1140  003394  0E7D               	movlw	125
  1141  003396                     u4887:
  1142  003396  2EE8               	decfsz	wreg,f,c
  1143  003398  D7FE               	bra	u4887
  1144  00339A  2F54               	decfsz	??_LCD_Comando& (0+255),f,b
  1145  00339C  D7FC               	bra	u4887
  1146  00339E                     
  1147                           ;LCD_4bits.c: 41:     LATDbits.LATD3 = 0;
  1148  00339E  968C               	bcf	140,3,c	;volatile
  1149                           
  1150                           ;LCD_4bits.c: 43:     LATD &= 0x0F;
  1151  0033A0  0E0F               	movlw	15
  1152  0033A2  168C               	andwf	140,f,c	;volatile
  1153                           
  1154                           ;LCD_4bits.c: 49:     LATD |= ((cmd<<4) & 0xF0);
  1155  0033A4  0101               	movlb	1	; () banked
  1156  0033A6  3955               	swapf	LCD_Comando@cmd& (0+255),w,b
  1157  0033A8  0BF0               	andlw	240
  1158  0033AA  0BF0               	andlw	240
  1159  0033AC  128C               	iorwf	140,f,c	;volatile
  1160  0033AE                     
  1161                           ; BSR set to: 1
  1162                           ;LCD_4bits.c: 58:     LATDbits.LATD2 = 0;
  1163  0033AE  948C               	bcf	140,2,c	;volatile
  1164  0033B0                     
  1165                           ; BSR set to: 1
  1166                           ;LCD_4bits.c: 59:     _delay((unsigned long)((1)*(20000000UL/4000.0)));
  1167  0033B0  0E07               	movlw	7
  1168  0033B2  0101               	movlb	1	; () banked
  1169  0033B4  6F54               	movwf	??_LCD_Comando& (0+255),b
  1170  0033B6  0E7D               	movlw	125
  1171  0033B8                     u4897:
  1172  0033B8  2EE8               	decfsz	wreg,f,c
  1173  0033BA  D7FE               	bra	u4897
  1174  0033BC  2F54               	decfsz	??_LCD_Comando& (0+255),f,b
  1175  0033BE  D7FC               	bra	u4897
  1176  0033C0                     
  1177                           ;LCD_4bits.c: 60:     LATDbits.LATD3 = 1;
  1178  0033C0  868C               	bsf	140,3,c	;volatile
  1179  0033C2                     
  1180                           ;LCD_4bits.c: 61:     _delay((unsigned long)((1)*(20000000UL/4000.0)));
  1181  0033C2  0E07               	movlw	7
  1182  0033C4  0101               	movlb	1	; () banked
  1183  0033C6  6F54               	movwf	??_LCD_Comando& (0+255),b
  1184  0033C8  0E7D               	movlw	125
  1185  0033CA                     u4907:
  1186  0033CA  2EE8               	decfsz	wreg,f,c
  1187  0033CC  D7FE               	bra	u4907
  1188  0033CE  2F54               	decfsz	??_LCD_Comando& (0+255),f,b
  1189  0033D0  D7FC               	bra	u4907
  1190  0033D2                     
  1191                           ;LCD_4bits.c: 62:     LATDbits.LATD3 = 0;
  1192  0033D2  968C               	bcf	140,3,c	;volatile
  1193                           
  1194                           ;LCD_4bits.c: 64:     LATD &= 0x0F;
  1195  0033D4  0E0F               	movlw	15
  1196  0033D6  168C               	andwf	140,f,c	;volatile
  1197  0033D8  0012               	return		;funcret
  1198  0033DA                     __end_of_LCD_Comando:
  1199                           	callstack 0
  1200                           
  1201 ;; *************** function _INT_Init *****************
  1202 ;; Defined at:
  1203 ;;		line 18 in file "Int_Libreria.c"
  1204 ;; Parameters:    Size  Location     Type
  1205 ;;		None
  1206 ;; Auto vars:     Size  Location     Type
  1207 ;;		None
  1208 ;; Return value:  Size  Location     Type
  1209 ;;                  1    wreg      void 
  1210 ;; Registers used:
  1211 ;;		None
  1212 ;; Tracked objects:
  1213 ;;		On entry : 0/0
  1214 ;;		On exit  : 0/0
  1215 ;;		Unchanged: 0/0
  1216 ;; Data sizes:     COMRAM   BANK0   BANK1   BANK2   BANK3   BANK4   BANK5   BANK6   BANK7
  1217 ;;      Params:         0       0       0       0       0       0       0       0       0
  1218 ;;      Locals:         0       0       0       0       0       0       0       0       0
  1219 ;;      Temps:          0       0       0       0       0       0       0       0       0
  1220 ;;      Totals:         0       0       0       0       0       0       0       0       0
  1221 ;;Total ram usage:        0 bytes
  1222 ;; Hardware stack levels used:    1
  1223 ;; Hardware stack levels required when called:   10
  1224 ;; This function calls:
  1225 ;;		Nothing
  1226 ;; This function is called by:
  1227 ;;		_main
  1228 ;; This function uses a non-reentrant model
  1229 ;;
  1230                           
  1231                           	psect	text4
  1232  003918                     __ptext4:
  1233                           	callstack 0
  1234  003918                     _INT_Init:
  1235                           	callstack 20
  1236  003918                     
  1237                           ;Int_Libreria.c: 28:     RCONbits.IPEN = 1;
  1238  003918  8ED0               	bsf	208,7,c	;volatile
  1239                           
  1240                           ;Int_Libreria.c: 29:     INTCONbits.GIEL = 1;
  1241  00391A  8CF2               	bsf	242,6,c	;volatile
  1242                           
  1243                           ;Int_Libreria.c: 30:     INTCONbits.GIEH = 1;
  1244  00391C  8EF2               	bsf	242,7,c	;volatile
  1245  00391E  0012               	return		;funcret
  1246  003920                     __end_of_INT_Init:
  1247                           	callstack 0
  1248                           
  1249 ;; *************** function _ADC_Init *****************
  1250 ;; Defined at:
  1251 ;;		line 6 in file "ADC_Libreria.c"
  1252 ;; Parameters:    Size  Location     Type
  1253 ;;		None
  1254 ;; Auto vars:     Size  Location     Type
  1255 ;;		None
  1256 ;; Return value:  Size  Location     Type
  1257 ;;                  1    wreg      void 
  1258 ;; Registers used:
  1259 ;;		wreg, status,2
  1260 ;; Tracked objects:
  1261 ;;		On entry : 0/0
  1262 ;;		On exit  : 0/0
  1263 ;;		Unchanged: 0/0
  1264 ;; Data sizes:     COMRAM   BANK0   BANK1   BANK2   BANK3   BANK4   BANK5   BANK6   BANK7
  1265 ;;      Params:         0       0       0       0       0       0       0       0       0
  1266 ;;      Locals:         0       0       0       0       0       0       0       0       0
  1267 ;;      Temps:          0       0       0       0       0       0       0       0       0
  1268 ;;      Totals:         0       0       0       0       0       0       0       0       0
  1269 ;;Total ram usage:        0 bytes
  1270 ;; Hardware stack levels used:    1
  1271 ;; Hardware stack levels required when called:   10
  1272 ;; This function calls:
  1273 ;;		Nothing
  1274 ;; This function is called by:
  1275 ;;		_main
  1276 ;; This function uses a non-reentrant model
  1277 ;;
  1278                           
  1279                           	psect	text5
  1280  00386C                     __ptext5:
  1281                           	callstack 0
  1282  00386C                     _ADC_Init:
  1283                           	callstack 20
  1284  00386C                     
  1285                           ;ADC_Libreria.c: 7:     ADCON1bits.VCFG = 0b00;
  1286  00386C  0ECF               	movlw	-49
  1287  00386E  16C1               	andwf	193,f,c	;volatile
  1288                           
  1289                           ;ADC_Libreria.c: 8:     ADCON1bits.PCFG = 0b1011;
  1290  003870  50C1               	movf	193,w,c	;volatile
  1291  003872  0BF0               	andlw	-16
  1292  003874  090B               	iorlw	11
  1293  003876  6EC1               	movwf	193,c	;volatile
  1294                           
  1295                           ;ADC_Libreria.c: 9:     ADCON0bits.CHS = 0b0000;
  1296  003878  0EC3               	movlw	-61
  1297  00387A  16C2               	andwf	194,f,c	;volatile
  1298  00387C                     
  1299                           ;ADC_Libreria.c: 10:     PIR1bits.ADIF = 0;
  1300  00387C  9C9E               	bcf	158,6,c	;volatile
  1301  00387E                     
  1302                           ;ADC_Libreria.c: 11:     PIE1bits.ADIE = 1;
  1303  00387E  8C9D               	bsf	157,6,c	;volatile
  1304  003880                     
  1305                           ;ADC_Libreria.c: 12:     IPR1bits.ADIP = 1;
  1306  003880  8C9F               	bsf	159,6,c	;volatile
  1307                           
  1308                           ;ADC_Libreria.c: 13:     ADCON2bits.ADCS = 0b101;
  1309  003882  50C0               	movf	192,w,c	;volatile
  1310  003884  0BF8               	andlw	-8
  1311  003886  0905               	iorlw	5
  1312  003888  6EC0               	movwf	192,c	;volatile
  1313                           
  1314                           ;ADC_Libreria.c: 14:     ADCON2bits.ACQT = 0b010;
  1315  00388A  50C0               	movf	192,w,c	;volatile
  1316  00388C  0BC7               	andlw	-57
  1317  00388E  0910               	iorlw	16
  1318  003890  6EC0               	movwf	192,c	;volatile
  1319  003892                     
  1320                           ;ADC_Libreria.c: 15:     ADCON2bits.ADFM = 1;
  1321  003892  8EC0               	bsf	192,7,c	;volatile
  1322  003894                     
  1323                           ;ADC_Libreria.c: 16:     ADCON0bits.ADON = 1;
  1324  003894  80C2               	bsf	194,0,c	;volatile
  1325  003896                     
  1326                           ;ADC_Libreria.c: 17:     ADCON0bits.GO_DONE = 1;
  1327  003896  82C2               	bsf	194,1,c	;volatile
  1328  003898  0012               	return		;funcret
  1329  00389A                     __end_of_ADC_Init:
  1330                           	callstack 0
  1331                           
  1332 ;; *************** function _TMR0_ISR *****************
  1333 ;; Defined at:
  1334 ;;		line 44 in file "Int_Libreria.c"
  1335 ;; Parameters:    Size  Location     Type
  1336 ;;		None
  1337 ;; Auto vars:     Size  Location     Type
  1338 ;;		None
  1339 ;; Return value:  Size  Location     Type
  1340 ;;                  1    wreg      void 
  1341 ;; Registers used:
  1342 ;;		wreg, status,2, status,0
  1343 ;; Tracked objects:
  1344 ;;		On entry : 0/0
  1345 ;;		On exit  : 0/0
  1346 ;;		Unchanged: 0/0
  1347 ;; Data sizes:     COMRAM   BANK0   BANK1   BANK2   BANK3   BANK4   BANK5   BANK6   BANK7
  1348 ;;      Params:         0       0       0       0       0       0       0       0       0
  1349 ;;      Locals:         0       0       0       0       0       0       0       0       0
  1350 ;;      Temps:          0       0       4       0       0       0       0       0       0
  1351 ;;      Totals:         0       0       4       0       0       0       0       0       0
  1352 ;;Total ram usage:        4 bytes
  1353 ;; Hardware stack levels used:    1
  1354 ;; Hardware stack levels required when called:    9
  1355 ;; This function calls:
  1356 ;;		Nothing
  1357 ;; This function is called by:
  1358 ;;		Interrupt level 1
  1359 ;; This function uses a non-reentrant model
  1360 ;;
  1361                           
  1362                           	psect	intcodelo
  1363  000018                     __pintcodelo:
  1364                           	callstack 0
  1365  000018                     _TMR0_ISR:
  1366                           	callstack 19
  1367                           
  1368                           ;incstack = 0
  1369  000018  805F               	bsf	int$flags,0,c	;set compiler interrupt flag (level 1)
  1370  00001A  CFD8 F151          	movff	status,??_TMR0_ISR+1
  1371  00001E  CFE8 F152          	movff	wreg,??_TMR0_ISR+2
  1372  000022  CFE0 F153          	movff	bsr,??_TMR0_ISR+3
  1373  000026                     
  1374                           ;Int_Libreria.c: 45:     x++;
  1375  000026  2A5E               	incf	_x^0,f,c
  1376  000028                     
  1377                           ;Int_Libreria.c: 46:     if(x >= 100){
  1378  000028  0E63               	movlw	99
  1379  00002A  645E               	cpfsgt	_x^0,c
  1380  00002C  EF1A  F000         	goto	i1u485_21
  1381  000030  EF1C  F000         	goto	i1u485_20
  1382  000034                     i1u485_21:
  1383  000034  EF2F  F000         	goto	i1l4164
  1384  000038                     i1u485_20:
  1385  000038                     
  1386                           ;Int_Libreria.c: 47:         LATDbits.LATD0 = ~LATDbits.LATD0;
  1387  000038  B08C               	btfsc	140,0,c	;volatile
  1388  00003A  EF21  F000         	goto	i1u486_21
  1389  00003E  EF24  F000         	goto	i1u486_20
  1390  000042                     i1u486_21:
  1391  000042  0E01               	movlw	1
  1392  000044  EF25  F000         	goto	i1u486_26
  1393  000048                     i1u486_20:
  1394  000048  0E00               	movlw	0
  1395  00004A                     i1u486_26:
  1396  00004A  0AFF               	xorlw	255
  1397  00004C  0101               	movlb	1	; () banked
  1398  00004E  6F50               	movwf	??_TMR0_ISR& (0+255),b
  1399  000050  508C               	movf	140,w,c	;volatile
  1400  000052  1950               	xorwf	??_TMR0_ISR& (0+255),w,b
  1401  000054  0BFE               	andlw	-2
  1402  000056  1950               	xorwf	??_TMR0_ISR& (0+255),w,b
  1403  000058  6E8C               	movwf	140,c	;volatile
  1404  00005A                     
  1405                           ; BSR set to: 1
  1406                           ;Int_Libreria.c: 48:         x = 0;
  1407  00005A  0E00               	movlw	0
  1408  00005C  6E5E               	movwf	_x^0,c
  1409  00005E                     i1l4164:
  1410                           
  1411                           ;Int_Libreria.c: 50:     TMR0 = 236;
  1412  00005E  0E00               	movlw	0
  1413  000060  6ED7               	movwf	215,c	;volatile
  1414  000062  0EEC               	movlw	236
  1415  000064  6ED6               	movwf	214,c	;volatile
  1416  000066                     
  1417                           ;Int_Libreria.c: 51:     INTCONbits.TMR0IF = 0;
  1418  000066  94F2               	bcf	242,2,c	;volatile
  1419  000068  C153  FFE0         	movff	??_TMR0_ISR+3,bsr
  1420  00006C  C152  FFE8         	movff	??_TMR0_ISR+2,wreg
  1421  000070  C151  FFD8         	movff	??_TMR0_ISR+1,status
  1422  000074  905F               	bcf	int$flags,0,c	;clear compiler interrupt flag (level 1)
  1423  000076  0010               	retfie	
  1424  000078                     __end_of_TMR0_ISR:
  1425                           	callstack 0
  1426                           
  1427 ;; *************** function _ADC_ISR *****************
  1428 ;; Defined at:
  1429 ;;		line 33 in file "Int_Libreria.c"
  1430 ;; Parameters:    Size  Location     Type
  1431 ;;		None
  1432 ;; Auto vars:     Size  Location     Type
  1433 ;;		None
  1434 ;; Return value:  Size  Location     Type
  1435 ;;                  1    wreg      void 
  1436 ;; Registers used:
  1437 ;;		wreg, fsr1l, fsr1h, fsr2l, fsr2h, status,2, status,0, tblptrl, tblptrh, tblptru, prodl, prodh, cstack
  1438 ;; Tracked objects:
  1439 ;;		On entry : 0/0
  1440 ;;		On exit  : 0/0
  1441 ;;		Unchanged: 0/0
  1442 ;; Data sizes:     COMRAM   BANK0   BANK1   BANK2   BANK3   BANK4   BANK5   BANK6   BANK7
  1443 ;;      Params:         0       0       0       0       0       0       0       0       0
  1444 ;;      Locals:         0       0       0       0       0       0       0       0       0
  1445 ;;      Temps:          0      12       0       0       0       0       0       0       0
  1446 ;;      Totals:         0      12       0       0       0       0       0       0       0
  1447 ;;Total ram usage:       12 bytes
  1448 ;; Hardware stack levels used:    1
  1449 ;; Hardware stack levels required when called:    8
  1450 ;; This function calls:
  1451 ;;		_LCD_Cadena
  1452 ;;		_LCD_XY
  1453 ;;		___flmul
  1454 ;;		___xxtofl
  1455 ;;		_sprintf
  1456 ;; This function is called by:
  1457 ;;		Interrupt level 2
  1458 ;; This function uses a non-reentrant model
  1459 ;;
  1460                           
  1461                           	psect	intcode
  1462  000008                     __pintcode:
  1463                           	callstack 0
  1464  000008                     _ADC_ISR:
  1465                           	callstack 19
  1466                           
  1467                           ;incstack = 0
  1468  000008  825F               	bsf	int$flags,1,c	;set compiler interrupt flag (level 2)
  1469  00000A  ED69  F015         	call	int_func,f	;refresh shadow registers
  1470                           
  1471                           	psect	intcode_body
  1472  002AD2                     __pintcode_body:
  1473                           	callstack 19
  1474  002AD2                     int_func:
  1475                           	callstack 19
  1476  002AD2  0006               	pop		; remove dummy address from shadow register refresh
  1477  002AD4  CFE1 F0AE          	movff	fsr1l,??_ADC_ISR+2
  1478  002AD8  CFE2 F0AF          	movff	fsr1h,??_ADC_ISR+3
  1479  002ADC  CFD9 F0B0          	movff	fsr2l,??_ADC_ISR+4
  1480  002AE0  CFDA F0B1          	movff	fsr2h,??_ADC_ISR+5
  1481  002AE4  CFF3 F0B2          	movff	prodl,??_ADC_ISR+6
  1482  002AE8  CFF4 F0B3          	movff	prodh,??_ADC_ISR+7
  1483  002AEC  CFF6 F0B4          	movff	tblptrl,??_ADC_ISR+8
  1484  002AF0  CFF7 F0B5          	movff	tblptrh,??_ADC_ISR+9
  1485  002AF4  CFF8 F0B6          	movff	tblptru,??_ADC_ISR+10
  1486  002AF8  CFF5 F0B7          	movff	tablat,??_ADC_ISR+11
  1487  002AFC                     
  1488                           ;Int_Libreria.c: 34:     valor_adc = ADRES;
  1489  002AFC  CFC3 F0CC          	movff	4035,_valor_adc	;volatile
  1490  002B00  CFC4 F0CD          	movff	4036,_valor_adc+1	;volatile
  1491  002B04                     
  1492                           ;Int_Libreria.c: 35:     Vin = valor_adc*(5.0/1023);
  1493  002B04  C0CC  F001         	movff	_valor_adc,___xxtofl@val
  1494  002B08  C0CD  F002         	movff	_valor_adc+1,___xxtofl@val+1
  1495  002B0C  6A03               	clrf	(___xxtofl@val+2)^0,c
  1496  002B0E  6A04               	clrf	(___xxtofl@val+3)^0,c
  1497  002B10  0E00               	movlw	0
  1498  002B12  ECC7  F013         	call	___xxtofl
  1499  002B16  C001  F00F         	movff	?___xxtofl,___flmul@b
  1500  002B1A  C002  F010         	movff	?___xxtofl+1,___flmul@b+1
  1501  002B1E  C003  F011         	movff	?___xxtofl+2,___flmul@b+2
  1502  002B22  C004  F012         	movff	?___xxtofl+3,___flmul@b+3
  1503  002B26  0E0A               	movlw	10
  1504  002B28  6E13               	movwf	___flmul@a^0,c
  1505  002B2A  0E28               	movlw	40
  1506  002B2C  6E14               	movwf	(___flmul@a+1)^0,c
  1507  002B2E  0EA0               	movlw	160
  1508  002B30  6E15               	movwf	(___flmul@a+2)^0,c
  1509  002B32  0E3B               	movlw	59
  1510  002B34  6E16               	movwf	(___flmul@a+3)^0,c
  1511  002B36  ECDC  F00E         	call	___flmul	;wreg free
  1512  002B3A  C00F  F0C0         	movff	?___flmul,_Vin
  1513  002B3E  C010  F0C1         	movff	?___flmul+1,_Vin+1
  1514  002B42  C011  F0C2         	movff	?___flmul+2,_Vin+2
  1515  002B46  C012  F0C3         	movff	?___flmul+3,_Vin+3
  1516  002B4A                     
  1517                           ;Int_Libreria.c: 36:     sprintf(datos,"Es: %0.2f V",Vin);
  1518  002B4A  0ECF               	movlw	low _datos
  1519  002B4C  0100               	movlb	0	; () banked
  1520  002B4E  6F9A               	movwf	sprintf@s& (0+255),b
  1521  002B50  0E00               	movlw	high _datos
  1522  002B52  6F9B               	movwf	(sprintf@s+1)& (0+255),b
  1523  002B54  0E01               	movlw	low STR_1
  1524  002B56  6F9C               	movwf	sprintf@fmt& (0+255),b
  1525  002B58  0E08               	movlw	high STR_1
  1526  002B5A  6F9D               	movwf	(sprintf@fmt+1)& (0+255),b
  1527  002B5C  C0C0  F09E         	movff	_Vin,?_sprintf+4
  1528  002B60  C0C1  F09F         	movff	_Vin+1,?_sprintf+5
  1529  002B64  C0C2  F0A0         	movff	_Vin+2,?_sprintf+6
  1530  002B68  C0C3  F0A1         	movff	_Vin+3,?_sprintf+7
  1531  002B6C  ECE8  F01A         	call	_sprintf	;wreg free
  1532  002B70                     
  1533                           ;Int_Libreria.c: 37:     LCD_XY(0,0);
  1534  002B70  0E00               	movlw	0
  1535  002B72  6E04               	movwf	(LCD_XY@x+1)^0,c
  1536  002B74  0E00               	movlw	0
  1537  002B76  6E03               	movwf	LCD_XY@x^0,c
  1538  002B78  0E00               	movlw	0
  1539  002B7A  6E06               	movwf	(LCD_XY@y+1)^0,c
  1540  002B7C  0E00               	movlw	0
  1541  002B7E  6E05               	movwf	LCD_XY@y^0,c
  1542  002B80  EC06  F01C         	call	_LCD_XY	;wreg free
  1543  002B84                     
  1544                           ;Int_Libreria.c: 38:     LCD_Cadena(datos);
  1545  002B84  0ECF               	movlw	low _datos
  1546  002B86  6E03               	movwf	LCD_Cadena@dat^0,c
  1547  002B88  0E00               	movlw	high _datos
  1548  002B8A  6E04               	movwf	(LCD_Cadena@dat+1)^0,c
  1549  002B8C  EC1E  F01C         	call	_LCD_Cadena	;wreg free
  1550  002B90                     
  1551                           ;Int_Libreria.c: 39:     _delay((unsigned long)((100)*(20000000UL/4000.0)));
  1552  002B90  0E03               	movlw	3
  1553  002B92  0100               	movlb	0	; () banked
  1554  002B94  6FAD               	movwf	(??_ADC_ISR+1)& (0+255),b
  1555  002B96  0E8A               	movlw	138
  1556  002B98  6FAC               	movwf	??_ADC_ISR& (0+255),b
  1557  002B9A  0E55               	movlw	85
  1558  002B9C                     i2u491_47:
  1559  002B9C  2EE8               	decfsz	wreg,f,c
  1560  002B9E  D7FE               	bra	i2u491_47
  1561  002BA0  2FAC               	decfsz	??_ADC_ISR& (0+255),f,b
  1562  002BA2  D7FC               	bra	i2u491_47
  1563  002BA4  2FAD               	decfsz	(??_ADC_ISR+1)& (0+255),f,b
  1564  002BA6  D7FA               	bra	i2u491_47
  1565  002BA8  D000               	nop2	
  1566  002BAA                     
  1567                           ;Int_Libreria.c: 40:     PIR1bits.ADIF = 0;
  1568  002BAA  9C9E               	bcf	158,6,c	;volatile
  1569  002BAC                     
  1570                           ;Int_Libreria.c: 41:     ADCON0bits.GO_DONE = 1;
  1571  002BAC  82C2               	bsf	194,1,c	;volatile
  1572  002BAE  C0B7  FFF5         	movff	??_ADC_ISR+11,tablat
  1573  002BB2  C0B6  FFF8         	movff	??_ADC_ISR+10,tblptru
  1574  002BB6  C0B5  FFF7         	movff	??_ADC_ISR+9,tblptrh
  1575  002BBA  C0B4  FFF6         	movff	??_ADC_ISR+8,tblptrl
  1576  002BBE  C0B3  FFF4         	movff	??_ADC_ISR+7,prodh
  1577  002BC2  C0B2  FFF3         	movff	??_ADC_ISR+6,prodl
  1578  002BC6  C0B1  FFDA         	movff	??_ADC_ISR+5,fsr2h
  1579  002BCA  C0B0  FFD9         	movff	??_ADC_ISR+4,fsr2l
  1580  002BCE  C0AF  FFE2         	movff	??_ADC_ISR+3,fsr1h
  1581  002BD2  C0AE  FFE1         	movff	??_ADC_ISR+2,fsr1l
  1582  002BD6  925F               	bcf	int$flags,1,c	;clear compiler interrupt flag (level 2)
  1583  002BD8  0011               	retfie		f
  1584  002BDA                     __end_of_ADC_ISR:
  1585                           	callstack 0
  1586                           
  1587 ;; *************** function _sprintf *****************
  1588 ;; Defined at:
  1589 ;;		line 9 in file "C:\Program Files\Microchip\xc8\v2.20\pic\sources\c99\common\nf_sprintf.c"
  1590 ;; Parameters:    Size  Location     Type
  1591 ;;  s               2   58[BANK0 ] PTR unsigned char 
  1592 ;;		 -> datos(10), 
  1593 ;;  fmt             2   60[BANK0 ] PTR const unsigned char 
  1594 ;;		 -> STR_1(12), 
  1595 ;; Auto vars:     Size  Location     Type
  1596 ;;  f               6   70[BANK0 ] struct _IO_FILE
  1597 ;;  ap              2   68[BANK0 ] PTR void [1]
  1598 ;;		 -> ?_sprintf(2), 
  1599 ;;  ret             2    0        int 
  1600 ;; Return value:  Size  Location     Type
  1601 ;;                  2   58[BANK0 ] int 
  1602 ;; Registers used:
  1603 ;;		wreg, fsr1l, fsr1h, fsr2l, fsr2h, status,2, status,0, tblptrl, tblptrh, tblptru, prodl, prodh, cstack
  1604 ;; Tracked objects:
  1605 ;;		On entry : 0/0
  1606 ;;		On exit  : 0/0
  1607 ;;		Unchanged: 0/0
  1608 ;; Data sizes:     COMRAM   BANK0   BANK1   BANK2   BANK3   BANK4   BANK5   BANK6   BANK7
  1609 ;;      Params:         0       8       0       0       0       0       0       0       0
  1610 ;;      Locals:         0      10       0       0       0       0       0       0       0
  1611 ;;      Temps:          0       0       0       0       0       0       0       0       0
  1612 ;;      Totals:         0      18       0       0       0       0       0       0       0
  1613 ;;Total ram usage:       18 bytes
  1614 ;; Hardware stack levels used:    1
  1615 ;; Hardware stack levels required when called:    7
  1616 ;; This function calls:
  1617 ;;		_vfprintf
  1618 ;; This function is called by:
  1619 ;;		_ADC_ISR
  1620 ;; This function uses a non-reentrant model
  1621 ;;
  1622                           
  1623                           	psect	text8
  1624  0035D0                     __ptext8:
  1625                           	callstack 0
  1626  0035D0                     _sprintf:
  1627                           	callstack 19
  1628  0035D0  0E9E               	movlw	low (?_sprintf+4)
  1629  0035D2  0100               	movlb	0	; () banked
  1630  0035D4  6FA4               	movwf	sprintf@ap& (0+255),b
  1631  0035D6  0E00               	movlw	high (?_sprintf+4)
  1632  0035D8  6FA5               	movwf	(sprintf@ap+1)& (0+255),b
  1633  0035DA  C09A  F0A6         	movff	sprintf@s,sprintf@f
  1634  0035DE  C09B  F0A7         	movff	sprintf@s+1,sprintf@f+1
  1635  0035E2                     
  1636                           ; BSR set to: 0
  1637  0035E2  0E00               	movlw	0
  1638  0035E4  6FA9               	movwf	(sprintf@f+3)& (0+255),b
  1639  0035E6  0E00               	movlw	0
  1640  0035E8  6FA8               	movwf	(sprintf@f+2)& (0+255),b
  1641  0035EA                     
  1642                           ; BSR set to: 0
  1643  0035EA  0E00               	movlw	0
  1644  0035EC  6FAB               	movwf	(sprintf@f+5)& (0+255),b
  1645  0035EE  0E00               	movlw	0
  1646  0035F0  6FAA               	movwf	(sprintf@f+4)& (0+255),b
  1647  0035F2                     
  1648                           ; BSR set to: 0
  1649  0035F2  0EA6               	movlw	low sprintf@f
  1650  0035F4  6E58               	movwf	vfprintf@fp^0,c
  1651  0035F6  0E00               	movlw	high sprintf@f
  1652  0035F8  6E59               	movwf	(vfprintf@fp+1)^0,c
  1653  0035FA  C09C  F05A         	movff	sprintf@fmt,vfprintf@fmt
  1654  0035FE  C09D  F05B         	movff	sprintf@fmt+1,vfprintf@fmt+1
  1655  003602  0EA4               	movlw	low sprintf@ap
  1656  003604  6E5C               	movwf	vfprintf@ap^0,c
  1657  003606  0E00               	movlw	high sprintf@ap
  1658  003608  6E5D               	movwf	(vfprintf@ap+1)^0,c
  1659  00360A  EC59  F01A         	call	_vfprintf	;wreg free
  1660  00360E  0100               	movlb	0	; () banked
  1661  003610  51A8               	movf	(sprintf@f+2)& (0+255),w,b
  1662  003612  259A               	addwf	sprintf@s& (0+255),w,b
  1663  003614  6ED9               	movwf	fsr2l,c
  1664  003616  51A9               	movf	(sprintf@f+3)& (0+255),w,b
  1665  003618  219B               	addwfc	(sprintf@s+1)& (0+255),w,b
  1666  00361A  6EDA               	movwf	fsr2h,c
  1667  00361C  0E00               	movlw	0
  1668  00361E  6EDF               	movwf	indf2,c
  1669  003620                     
  1670                           ; BSR set to: 0
  1671  003620  0012               	return		;funcret
  1672  003622                     __end_of_sprintf:
  1673                           	callstack 0
  1674                           
  1675 ;; *************** function _vfprintf *****************
  1676 ;; Defined at:
  1677 ;;		line 1368 in file "C:\Program Files\Microchip\xc8\v2.20\pic\sources\c99\common\doprnt.c"
  1678 ;; Parameters:    Size  Location     Type
  1679 ;;  fp              2   87[COMRAM] PTR struct _IO_FILE
  1680 ;;		 -> sprintf@f(6), 
  1681 ;;  fmt             2   89[COMRAM] PTR const unsigned char 
  1682 ;;		 -> STR_1(12), 
  1683 ;;  ap              2   91[COMRAM] PTR PTR void 
  1684 ;;		 -> sprintf@ap(2), 
  1685 ;; Auto vars:     Size  Location     Type
  1686 ;;  cfmt            2   56[BANK0 ] PTR unsigned char 
  1687 ;;		 -> STR_1(12), 
  1688 ;; Return value:  Size  Location     Type
  1689 ;;                  2   87[COMRAM] int 
  1690 ;; Registers used:
  1691 ;;		wreg, fsr1l, fsr1h, fsr2l, fsr2h, status,2, status,0, tblptrl, tblptrh, tblptru, prodl, prodh, cstack
  1692 ;; Tracked objects:
  1693 ;;		On entry : 0/0
  1694 ;;		On exit  : 0/0
  1695 ;;		Unchanged: 0/0
  1696 ;; Data sizes:     COMRAM   BANK0   BANK1   BANK2   BANK3   BANK4   BANK5   BANK6   BANK7
  1697 ;;      Params:         6       0       0       0       0       0       0       0       0
  1698 ;;      Locals:         0       2       0       0       0       0       0       0       0
  1699 ;;      Temps:          0       0       0       0       0       0       0       0       0
  1700 ;;      Totals:         6       2       0       0       0       0       0       0       0
  1701 ;;Total ram usage:        8 bytes
  1702 ;; Hardware stack levels used:    1
  1703 ;; Hardware stack levels required when called:    6
  1704 ;; This function calls:
  1705 ;;		_vfpfcnvrt
  1706 ;; This function is called by:
  1707 ;;		_sprintf
  1708 ;; This function uses a non-reentrant model
  1709 ;;
  1710                           
  1711                           	psect	text9
  1712  0034B2                     __ptext9:
  1713                           	callstack 0
  1714  0034B2                     _vfprintf:
  1715                           	callstack 19
  1716  0034B2                     
  1717                           ;C:\Program Files\Microchip\xc8\v2.20\pic\sources\c99\common\doprnt.c: 1368: int vfprint
      +                          f(FILE *fp, const char *fmt, va_list ap);C:\Program Files\Microchip\xc8\v2.20\pic\source
      +                          s\c99\common\doprnt.c: 1369: {;C:\Program Files\Microchip\xc8\v2.20\pic\sources\c99\comm
      +                          on\doprnt.c: 1371:     char *cfmt;;C:\Program Files\Microchip\xc8\v2.20\pic\sources\c99\
      +                          common\doprnt.c: 1373:     cfmt = (char *)fmt;
  1718  0034B2  C05A  F098         	movff	vfprintf@fmt,vfprintf@cfmt
  1719  0034B6  C05B  F099         	movff	vfprintf@fmt+1,vfprintf@cfmt+1
  1720  0034BA                     
  1721                           ;C:\Program Files\Microchip\xc8\v2.20\pic\sources\c99\common\doprnt.c: 1374:     nout = 
      +                          0;
  1722  0034BA  0E00               	movlw	0
  1723  0034BC  0100               	movlb	0	; () banked
  1724  0034BE  6FC5               	movwf	(_nout+1)& (0+255),b
  1725  0034C0  0E00               	movlw	0
  1726  0034C2  6FC4               	movwf	_nout& (0+255),b
  1727                           
  1728                           ;C:\Program Files\Microchip\xc8\v2.20\pic\sources\c99\common\doprnt.c: 1375:     while (
      +                          *cfmt) {
  1729  0034C4  EF77  F01A         	goto	i2l4000
  1730  0034C8                     i2l3998:
  1731                           
  1732                           ; BSR set to: 0
  1733                           ;C:\Program Files\Microchip\xc8\v2.20\pic\sources\c99\common\doprnt.c: 1376:         nou
      +                          t += vfpfcnvrt(fp, &cfmt, ap);
  1734  0034C8  C058  F040         	movff	vfprintf@fp,vfpfcnvrt@fp
  1735  0034CC  C059  F041         	movff	vfprintf@fp+1,vfpfcnvrt@fp+1
  1736  0034D0  0E98               	movlw	low vfprintf@cfmt
  1737  0034D2  6E42               	movwf	vfpfcnvrt@fmt^0,c
  1738  0034D4  0E00               	movlw	high vfprintf@cfmt
  1739  0034D6  6E43               	movwf	(vfpfcnvrt@fmt+1)^0,c
  1740  0034D8  C05C  F044         	movff	vfprintf@ap,vfpfcnvrt@ap
  1741  0034DC  C05D  F045         	movff	vfprintf@ap+1,vfpfcnvrt@ap+1
  1742  0034E0  ECE9  F009         	call	_vfpfcnvrt	;wreg free
  1743  0034E4  5040               	movf	?_vfpfcnvrt^0,w,c
  1744  0034E6  0100               	movlb	0	; () banked
  1745  0034E8  27C4               	addwf	_nout& (0+255),f,b
  1746  0034EA  5041               	movf	(?_vfpfcnvrt+1)^0,w,c
  1747  0034EC  23C5               	addwfc	(_nout+1)& (0+255),f,b
  1748  0034EE                     i2l4000:
  1749                           
  1750                           ; BSR set to: 0
  1751                           ;C:\Program Files\Microchip\xc8\v2.20\pic\sources\c99\common\doprnt.c: 1375:     while (
      +                          *cfmt) {
  1752  0034EE  C098  FFF6         	movff	vfprintf@cfmt,tblptrl
  1753  0034F2  C099  FFF7         	movff	vfprintf@cfmt+1,tblptrh
  1754  0034F6                     	if	0	;tblptru may be non-zero
  1755  0034F6                     	endif
  1756  0034F6                     	if	0	;tblptru may be non-zero
  1757  0034F6                     	endif
  1758  0034F6  0008               	tblrd		*
  1759  0034F8  50F5               	movf	tablat,w,c
  1760  0034FA  0900               	iorlw	0
  1761  0034FC  A4D8               	btfss	status,2,c
  1762  0034FE  EF83  F01A         	goto	i2u472_41
  1763  003502  EF85  F01A         	goto	i2u472_40
  1764  003506                     i2u472_41:
  1765  003506  EF64  F01A         	goto	i2l3998
  1766  00350A                     i2u472_40:
  1767  00350A                     
  1768                           ; BSR set to: 0
  1769                           ;C:\Program Files\Microchip\xc8\v2.20\pic\sources\c99\common\doprnt.c: 1378:     return 
      +                          nout;
  1770  00350A  C0C4  F058         	movff	_nout,?_vfprintf
  1771  00350E  C0C5  F059         	movff	_nout+1,?_vfprintf+1
  1772  003512                     
  1773                           ; BSR set to: 0
  1774  003512  0012               	return		;funcret
  1775  003514                     __end_of_vfprintf:
  1776                           	callstack 0
  1777                           
  1778 ;; *************** function _vfpfcnvrt *****************
  1779 ;; Defined at:
  1780 ;;		line 670 in file "C:\Program Files\Microchip\xc8\v2.20\pic\sources\c99\common\doprnt.c"
  1781 ;; Parameters:    Size  Location     Type
  1782 ;;  fp              2   63[COMRAM] PTR struct _IO_FILE
  1783 ;;		 -> sprintf@f(6), 
  1784 ;;  fmt             2   65[COMRAM] PTR PTR unsigned char 
  1785 ;;		 -> vfprintf@cfmt(2), 
  1786 ;;  ap              2   67[COMRAM] PTR PTR void 
  1787 ;;		 -> sprintf@ap(2), 
  1788 ;; Auto vars:     Size  Location     Type
  1789 ;;  llu             8    0        unsigned long long 
  1790 ;;  ll              8    0        long long 
  1791 ;;  f               4   79[COMRAM] long long 
  1792 ;;  ct              3   83[COMRAM] unsigned char [3]
  1793 ;;  vp              3    0        PTR void 
  1794 ;;  cp              3    0        PTR unsigned char 
  1795 ;;  done            2   73[COMRAM] int 
  1796 ;;  i               2    0        int 
  1797 ;;  c               1   86[COMRAM] unsigned char 
  1798 ;; Return value:  Size  Location     Type
  1799 ;;                  2   63[COMRAM] int 
  1800 ;; Registers used:
  1801 ;;		wreg, fsr1l, fsr1h, fsr2l, fsr2h, status,2, status,0, tblptrl, tblptrh, tblptru, prodl, prodh, cstack
  1802 ;; Tracked objects:
  1803 ;;		On entry : 0/0
  1804 ;;		On exit  : 0/0
  1805 ;;		Unchanged: 0/0
  1806 ;; Data sizes:     COMRAM   BANK0   BANK1   BANK2   BANK3   BANK4   BANK5   BANK6   BANK7
  1807 ;;      Params:         6       0       0       0       0       0       0       0       0
  1808 ;;      Locals:        14       0       0       0       0       0       0       0       0
  1809 ;;      Temps:          4       0       0       0       0       0       0       0       0
  1810 ;;      Totals:        24       0       0       0       0       0       0       0       0
  1811 ;;Total ram usage:       24 bytes
  1812 ;; Hardware stack levels used:    1
  1813 ;; Hardware stack levels required when called:    5
  1814 ;; This function calls:
  1815 ;;		_atoi
  1816 ;;		_efgtoa
  1817 ;;		_fputc
  1818 ;;		_isdigit
  1819 ;;		_isupper
  1820 ;;		_strncmp
  1821 ;;		_tolower
  1822 ;; This function is called by:
  1823 ;;		_vfprintf
  1824 ;; This function uses a non-reentrant model
  1825 ;;
  1826                           
  1827                           	psect	text10
  1828  0013D2                     __ptext10:
  1829                           	callstack 0
  1830  0013D2                     _vfpfcnvrt:
  1831                           	callstack 19
  1832  0013D2                     
  1833                           ;C:\Program Files\Microchip\xc8\v2.20\pic\sources\c99\common\doprnt.c: 670: static int v
      +                          fpfcnvrt(FILE *fp, char *fmt[], va_list ap);C:\Program Files\Microchip\xc8\v2.20\pic\sou
      +                          rces\c99\common\doprnt.c: 671: {;C:\Program Files\Microchip\xc8\v2.20\pic\sources\c99\co
      +                          mmon\doprnt.c: 672:     char c, *cp, ct[3];;C:\Program Files\Microchip\xc8\v2.20\pic\sou
      +                          rces\c99\common\doprnt.c: 673:     int done, i;;C:\Program Files\Microchip\xc8\v2.20\pic
      +                          \sources\c99\common\doprnt.c: 674:     long long ll;;C:\Program Files\Microchip\xc8\v2.2
      +                          0\pic\sources\c99\common\doprnt.c: 675:     unsigned long long llu;
  1834  0013D2  C042  FFD9         	movff	vfpfcnvrt@fmt,fsr2l
  1835  0013D6  C043  FFDA         	movff	vfpfcnvrt@fmt+1,fsr2h
  1836  0013DA  CFDE FFF6          	movff	postinc2,tblptrl
  1837  0013DE  CFDD FFF7          	movff	postdec2,tblptrh
  1838  0013E2                     	if	0	;tblptru may be non-zero
  1839  0013E2                     	endif
  1840  0013E2                     	if	0	;tblptru may be non-zero
  1841  0013E2                     	endif
  1842  0013E2  0008               	tblrd		*
  1843  0013E4  50F5               	movf	tablat,w,c
  1844  0013E6  0A25               	xorlw	37
  1845  0013E8  A4D8               	btfss	status,2,c
  1846  0013EA  EFF9  F009         	goto	i2u456_41
  1847  0013EE  EFFB  F009         	goto	i2u456_40
  1848  0013F2                     i2u456_41:
  1849  0013F2  EF60  F00C         	goto	i2l3936
  1850  0013F6                     i2u456_40:
  1851  0013F6                     
  1852                           ;C:\Program Files\Microchip\xc8\v2.20\pic\sources\c99\common\doprnt.c: 681:         ++*f
      +                          mt;
  1853  0013F6  C042  FFD9         	movff	vfpfcnvrt@fmt,fsr2l
  1854  0013FA  C043  FFDA         	movff	vfpfcnvrt@fmt+1,fsr2h
  1855  0013FE  2ADE               	incf	postinc2,f,c
  1856  001400  0E00               	movlw	0
  1857  001402  22DD               	addwfc	postdec2,f,c
  1858  001404                     
  1859                           ;C:\Program Files\Microchip\xc8\v2.20\pic\sources\c99\common\doprnt.c: 683:         flag
      +                          s = width = 0;
  1860  001404  0E00               	movlw	0
  1861  001406  0100               	movlb	0	; () banked
  1862  001408  6FC7               	movwf	(_width+1)& (0+255),b
  1863  00140A  0E00               	movlw	0
  1864  00140C  6FC6               	movwf	_width& (0+255),b
  1865  00140E  C0C6  F0CA         	movff	_width,_flags
  1866  001412  C0C7  F0CB         	movff	_width+1,_flags+1
  1867  001416                     
  1868                           ; BSR set to: 0
  1869                           ;C:\Program Files\Microchip\xc8\v2.20\pic\sources\c99\common\doprnt.c: 684:         prec
      +                           = -1;
  1870  001416  69C8               	setf	_prec& (0+255),b
  1871  001418  69C9               	setf	(_prec+1)& (0+255),b
  1872  00141A                     
  1873                           ; BSR set to: 0
  1874                           ;C:\Program Files\Microchip\xc8\v2.20\pic\sources\c99\common\doprnt.c: 688:         done
      +                           = 0;
  1875  00141A  0E00               	movlw	0
  1876  00141C  6E4B               	movwf	(vfpfcnvrt@done+1)^0,c
  1877  00141E  0E00               	movlw	0
  1878  001420  6E4A               	movwf	vfpfcnvrt@done^0,c
  1879                           
  1880                           ;C:\Program Files\Microchip\xc8\v2.20\pic\sources\c99\common\doprnt.c: 689:         whil
      +                          e (!done) {
  1881  001422  EF5E  F00A         	goto	i2l3858
  1882  001426                     i2l3832:
  1883                           
  1884                           ;C:\Program Files\Microchip\xc8\v2.20\pic\sources\c99\common\doprnt.c: 692:             
      +                                  flags |= (1 << 0);
  1885  001426  0100               	movlb	0	; () banked
  1886  001428  81CA               	bsf	_flags& (0+255),0,b
  1887  00142A                     i2l3834:
  1888                           
  1889                           ; BSR set to: 0
  1890                           ;C:\Program Files\Microchip\xc8\v2.20\pic\sources\c99\common\doprnt.c: 693:             
      +                                  ++*fmt;
  1891  00142A  C042  FFD9         	movff	vfpfcnvrt@fmt,fsr2l
  1892  00142E  C043  FFDA         	movff	vfpfcnvrt@fmt+1,fsr2h
  1893  001432  2ADE               	incf	postinc2,f,c
  1894  001434  0E00               	movlw	0
  1895  001436  22DD               	addwfc	postdec2,f,c
  1896                           
  1897                           ;C:\Program Files\Microchip\xc8\v2.20\pic\sources\c99\common\doprnt.c: 694:             
      +                                  break;
  1898  001438  EF5E  F00A         	goto	i2l3858
  1899  00143C                     i2l3836:
  1900                           
  1901                           ;C:\Program Files\Microchip\xc8\v2.20\pic\sources\c99\common\doprnt.c: 696:             
      +                                  flags |= (1 << 1);
  1902  00143C  0100               	movlb	0	; () banked
  1903  00143E  83CA               	bsf	_flags& (0+255),1,b
  1904  001440  EF15  F00A         	goto	i2l3834
  1905  001444                     i2l3840:
  1906                           
  1907                           ;C:\Program Files\Microchip\xc8\v2.20\pic\sources\c99\common\doprnt.c: 700:             
      +                                  flags |= (1 << 2);
  1908  001444  0100               	movlb	0	; () banked
  1909  001446  85CA               	bsf	_flags& (0+255),2,b
  1910  001448  EF15  F00A         	goto	i2l3834
  1911  00144C                     i2l3844:
  1912                           
  1913                           ;C:\Program Files\Microchip\xc8\v2.20\pic\sources\c99\common\doprnt.c: 704:             
      +                                  flags |= (1 << 3);
  1914  00144C  0100               	movlb	0	; () banked
  1915  00144E  87CA               	bsf	_flags& (0+255),3,b
  1916  001450  EF15  F00A         	goto	i2l3834
  1917  001454                     i2l3848:
  1918                           
  1919                           ;C:\Program Files\Microchip\xc8\v2.20\pic\sources\c99\common\doprnt.c: 708:             
      +                                  flags |= (1 << 4);
  1920  001454  0100               	movlb	0	; () banked
  1921  001456  89CA               	bsf	_flags& (0+255),4,b
  1922  001458  EF15  F00A         	goto	i2l3834
  1923  00145C                     i2l3852:
  1924                           
  1925                           ;C:\Program Files\Microchip\xc8\v2.20\pic\sources\c99\common\doprnt.c: 712:             
      +                                  done = 1;
  1926  00145C  0E00               	movlw	0
  1927  00145E  6E4B               	movwf	(vfpfcnvrt@done+1)^0,c
  1928  001460  0E01               	movlw	1
  1929  001462  6E4A               	movwf	vfpfcnvrt@done^0,c
  1930                           
  1931                           ;C:\Program Files\Microchip\xc8\v2.20\pic\sources\c99\common\doprnt.c: 713:             
      +                                  break;
  1932  001464  EF5E  F00A         	goto	i2l3858
  1933  001468                     i2l3856:
  1934  001468  C042  FFD9         	movff	vfpfcnvrt@fmt,fsr2l
  1935  00146C  C043  FFDA         	movff	vfpfcnvrt@fmt+1,fsr2h
  1936  001470  CFDE FFF6          	movff	postinc2,tblptrl
  1937  001474  CFDD FFF7          	movff	postdec2,tblptrh
  1938  001478                     	if	0	;tblptru may be non-zero
  1939  001478                     	endif
  1940  001478                     	if	0	;tblptru may be non-zero
  1941  001478                     	endif
  1942  001478  0008               	tblrd		*
  1943  00147A  50F5               	movf	tablat,w,c
  1944  00147C  6E46               	movwf	??_vfpfcnvrt^0,c
  1945  00147E  6A47               	clrf	(??_vfpfcnvrt+1)^0,c
  1946                           
  1947                           ; Switch on 2 bytes has been partitioned into a top level switch of size 1, and 1 sub-sw
      +                          itches
  1948                           ; Switch size 1, requested type "simple"
  1949                           ; Number of cases is 1, Range of values is 0 to 0
  1950                           ; switch strategies available:
  1951                           ; Name         Instructions Cycles
  1952                           ; simple_byte            4     3 (average)
  1953                           ;	Chosen strategy is simple_byte
  1954  001480  5047               	movf	(??_vfpfcnvrt+1)^0,w,c
  1955  001482  0A00               	xorlw	0	; case 0
  1956  001484  B4D8               	btfsc	status,2,c
  1957  001486  EF47  F00A         	goto	i2l4226
  1958  00148A  EF2E  F00A         	goto	i2l3852
  1959  00148E                     i2l4226:
  1960                           
  1961                           ; Switch size 1, requested type "simple"
  1962                           ; Number of cases is 5, Range of values is 32 to 48
  1963                           ; switch strategies available:
  1964                           ; Name         Instructions Cycles
  1965                           ; simple_byte           16     9 (average)
  1966                           ;	Chosen strategy is simple_byte
  1967  00148E  5046               	movf	??_vfpfcnvrt^0,w,c
  1968  001490  0A20               	xorlw	32	; case 32
  1969  001492  B4D8               	btfsc	status,2,c
  1970  001494  EF26  F00A         	goto	i2l3844
  1971  001498  0A03               	xorlw	3	; case 35
  1972  00149A  B4D8               	btfsc	status,2,c
  1973  00149C  EF2A  F00A         	goto	i2l3848
  1974  0014A0  0A08               	xorlw	8	; case 43
  1975  0014A2  B4D8               	btfsc	status,2,c
  1976  0014A4  EF22  F00A         	goto	i2l3840
  1977  0014A8  0A06               	xorlw	6	; case 45
  1978  0014AA  B4D8               	btfsc	status,2,c
  1979  0014AC  EF13  F00A         	goto	i2l3832
  1980  0014B0  0A1D               	xorlw	29	; case 48
  1981  0014B2  B4D8               	btfsc	status,2,c
  1982  0014B4  EF1E  F00A         	goto	i2l3836
  1983  0014B8  EF2E  F00A         	goto	i2l3852
  1984  0014BC                     i2l3858:
  1985                           
  1986                           ;C:\Program Files\Microchip\xc8\v2.20\pic\sources\c99\common\doprnt.c: 689:         whil
      +                          e (!done) {
  1987  0014BC  504A               	movf	vfpfcnvrt@done^0,w,c
  1988  0014BE  104B               	iorwf	(vfpfcnvrt@done+1)^0,w,c
  1989  0014C0  B4D8               	btfsc	status,2,c
  1990  0014C2  EF65  F00A         	goto	i2u457_41
  1991  0014C6  EF67  F00A         	goto	i2u457_40
  1992  0014CA                     i2u457_41:
  1993  0014CA  EF34  F00A         	goto	i2l3856
  1994  0014CE                     i2u457_40:
  1995  0014CE                     
  1996                           ;C:\Program Files\Microchip\xc8\v2.20\pic\sources\c99\common\doprnt.c: 716:         if (
      +                          flags & (1 << 0)) {
  1997  0014CE  0100               	movlb	0	; () banked
  1998  0014D0  A1CA               	btfss	_flags& (0+255),0,b
  1999  0014D2  EF6D  F00A         	goto	i2u458_41
  2000  0014D6  EF6F  F00A         	goto	i2u458_40
  2001  0014DA                     i2u458_41:
  2002  0014DA  EF70  F00A         	goto	i2l3862
  2003  0014DE                     i2u458_40:
  2004  0014DE                     
  2005                           ; BSR set to: 0
  2006                           ;C:\Program Files\Microchip\xc8\v2.20\pic\sources\c99\common\doprnt.c: 717:             
      +                          flags &= ~(1 << 1);
  2007  0014DE  93CA               	bcf	_flags& (0+255),1,b
  2008  0014E0                     i2l3862:
  2009                           
  2010                           ; BSR set to: 0
  2011                           ;C:\Program Files\Microchip\xc8\v2.20\pic\sources\c99\common\doprnt.c: 740:         if (
      +                          (*fmt)[0] == '.') {
  2012  0014E0  C042  FFD9         	movff	vfpfcnvrt@fmt,fsr2l
  2013  0014E4  C043  FFDA         	movff	vfpfcnvrt@fmt+1,fsr2h
  2014  0014E8  CFDE FFF6          	movff	postinc2,tblptrl
  2015  0014EC  CFDD FFF7          	movff	postdec2,tblptrh
  2016  0014F0                     	if	0	;tblptru may be non-zero
  2017  0014F0                     	endif
  2018  0014F0                     	if	0	;tblptru may be non-zero
  2019  0014F0                     	endif
  2020  0014F0  0008               	tblrd		*
  2021  0014F2  50F5               	movf	tablat,w,c
  2022  0014F4  0A2E               	xorlw	46
  2023  0014F6  A4D8               	btfss	status,2,c
  2024  0014F8  EF80  F00A         	goto	i2u459_41
  2025  0014FC  EF82  F00A         	goto	i2u459_40
  2026  001500                     i2u459_41:
  2027  001500  EFFF  F00A         	goto	i2l3882
  2028  001504                     i2u459_40:
  2029  001504                     
  2030                           ; BSR set to: 0
  2031                           ;C:\Program Files\Microchip\xc8\v2.20\pic\sources\c99\common\doprnt.c: 741:             
      +                          prec = 0;
  2032  001504  0E00               	movlw	0
  2033  001506  6FC9               	movwf	(_prec+1)& (0+255),b
  2034  001508  0E00               	movlw	0
  2035  00150A  6FC8               	movwf	_prec& (0+255),b
  2036  00150C                     
  2037                           ; BSR set to: 0
  2038                           ;C:\Program Files\Microchip\xc8\v2.20\pic\sources\c99\common\doprnt.c: 742:             
      +                          ++*fmt;
  2039  00150C  C042  FFD9         	movff	vfpfcnvrt@fmt,fsr2l
  2040  001510  C043  FFDA         	movff	vfpfcnvrt@fmt+1,fsr2h
  2041  001514  2ADE               	incf	postinc2,f,c
  2042  001516  0E00               	movlw	0
  2043  001518  22DD               	addwfc	postdec2,f,c
  2044  00151A                     
  2045                           ; BSR set to: 0
  2046                           ;C:\Program Files\Microchip\xc8\v2.20\pic\sources\c99\common\doprnt.c: 743:             
      +                          if ((*fmt)[0] == '*') {
  2047  00151A  C042  FFD9         	movff	vfpfcnvrt@fmt,fsr2l
  2048  00151E  C043  FFDA         	movff	vfpfcnvrt@fmt+1,fsr2h
  2049  001522  CFDE FFF6          	movff	postinc2,tblptrl
  2050  001526  CFDD FFF7          	movff	postdec2,tblptrh
  2051  00152A                     	if	0	;tblptru may be non-zero
  2052  00152A                     	endif
  2053  00152A                     	if	0	;tblptru may be non-zero
  2054  00152A                     	endif
  2055  00152A  0008               	tblrd		*
  2056  00152C  50F5               	movf	tablat,w,c
  2057  00152E  0A2A               	xorlw	42
  2058  001530  A4D8               	btfss	status,2,c
  2059  001532  EF9D  F00A         	goto	i2u460_41
  2060  001536  EF9F  F00A         	goto	i2u460_40
  2061  00153A                     i2u460_41:
  2062  00153A  EFBC  F00A         	goto	i2l3872
  2063  00153E                     i2u460_40:
  2064  00153E                     
  2065                           ; BSR set to: 0
  2066                           ;C:\Program Files\Microchip\xc8\v2.20\pic\sources\c99\common\doprnt.c: 744:             
      +                              ++*fmt;
  2067  00153E  C042  FFD9         	movff	vfpfcnvrt@fmt,fsr2l
  2068  001542  C043  FFDA         	movff	vfpfcnvrt@fmt+1,fsr2h
  2069  001546  2ADE               	incf	postinc2,f,c
  2070  001548  0E00               	movlw	0
  2071  00154A  22DD               	addwfc	postdec2,f,c
  2072                           
  2073                           ;C:\Program Files\Microchip\xc8\v2.20\pic\sources\c99\common\doprnt.c: 745:             
      +                              prec = (*(int *)__va_arg(*(int **)ap, (int)0));
  2074  00154C  C044  FFD9         	movff	vfpfcnvrt@ap,fsr2l
  2075  001550  C045  FFDA         	movff	vfpfcnvrt@ap+1,fsr2h
  2076  001554  CFDF F046          	movff	indf2,??_vfpfcnvrt
  2077  001558  0E02               	movlw	2
  2078  00155A  26DE               	addwf	postinc2,f,c
  2079  00155C  CFDF F047          	movff	indf2,??_vfpfcnvrt+1
  2080  001560  0E00               	movlw	0
  2081  001562  22DD               	addwfc	postdec2,f,c
  2082  001564  C046  FFD9         	movff	??_vfpfcnvrt,fsr2l
  2083  001568  C047  FFDA         	movff	??_vfpfcnvrt+1,fsr2h
  2084  00156C  CFDE F0C8          	movff	postinc2,_prec
  2085  001570  CFDD F0C9          	movff	postdec2,_prec+1
  2086                           
  2087                           ;C:\Program Files\Microchip\xc8\v2.20\pic\sources\c99\common\doprnt.c: 746:             
      +                          } else {
  2088  001574  EFFF  F00A         	goto	i2l3882
  2089  001578                     i2l3872:
  2090                           
  2091                           ; BSR set to: 0
  2092                           ;C:\Program Files\Microchip\xc8\v2.20\pic\sources\c99\common\doprnt.c: 747:             
      +                              prec = atoi(*fmt);
  2093  001578  C042  FFD9         	movff	vfpfcnvrt@fmt,fsr2l
  2094  00157C  C043  FFDA         	movff	vfpfcnvrt@fmt+1,fsr2h
  2095  001580  CFDE F008          	movff	postinc2,atoi@s
  2096  001584  CFDD F009          	movff	postdec2,atoi@s+1
  2097  001588  ECA1  F014         	call	_atoi	;wreg free
  2098  00158C  C008  F0C8         	movff	?_atoi,_prec
  2099  001590  C009  F0C9         	movff	?_atoi+1,_prec+1
  2100                           
  2101                           ;C:\Program Files\Microchip\xc8\v2.20\pic\sources\c99\common\doprnt.c: 748:             
      +                              while ((0 ? isdigit((*fmt)[0]) : ((unsigned)((*fmt)[0])-'0') < 10)) {
  2102  001594  EFD3  F00A         	goto	i2l3876
  2103  001598                     i2l3874:
  2104                           
  2105                           ;C:\Program Files\Microchip\xc8\v2.20\pic\sources\c99\common\doprnt.c: 749:             
      +                                  ++*fmt;
  2106  001598  C042  FFD9         	movff	vfpfcnvrt@fmt,fsr2l
  2107  00159C  C043  FFDA         	movff	vfpfcnvrt@fmt+1,fsr2h
  2108  0015A0  2ADE               	incf	postinc2,f,c
  2109  0015A2  0E00               	movlw	0
  2110  0015A4  22DD               	addwfc	postdec2,f,c
  2111  0015A6                     i2l3876:
  2112  0015A6  0ED0               	movlw	208
  2113  0015A8  6E46               	movwf	??_vfpfcnvrt^0,c
  2114  0015AA  0EFF               	movlw	255
  2115  0015AC  6E47               	movwf	(??_vfpfcnvrt+1)^0,c
  2116  0015AE  C042  FFD9         	movff	vfpfcnvrt@fmt,fsr2l
  2117  0015B2  C043  FFDA         	movff	vfpfcnvrt@fmt+1,fsr2h
  2118  0015B6  CFDE FFF6          	movff	postinc2,tblptrl
  2119  0015BA  CFDD FFF7          	movff	postdec2,tblptrh
  2120  0015BE                     	if	0	;tblptru may be non-zero
  2121  0015BE                     	endif
  2122  0015BE                     	if	0	;tblptru may be non-zero
  2123  0015BE                     	endif
  2124  0015BE  0008               	tblrd		*
  2125  0015C0  50F5               	movf	tablat,w,c
  2126  0015C2  6E48               	movwf	(??_vfpfcnvrt+2)^0,c
  2127  0015C4  6A49               	clrf	(??_vfpfcnvrt+3)^0,c
  2128  0015C6  5046               	movf	??_vfpfcnvrt^0,w,c
  2129  0015C8  2648               	addwf	(??_vfpfcnvrt+2)^0,f,c
  2130  0015CA  5047               	movf	(??_vfpfcnvrt+1)^0,w,c
  2131  0015CC  2249               	addwfc	(??_vfpfcnvrt+3)^0,f,c
  2132  0015CE  5049               	movf	(??_vfpfcnvrt+3)^0,w,c
  2133  0015D0  E10A               	bnz	i2u461_40
  2134  0015D2  0E0A               	movlw	10
  2135  0015D4  5C48               	subwf	(??_vfpfcnvrt+2)^0,w,c
  2136  0015D6  A0D8               	btfss	status,0,c
  2137  0015D8  EFF0  F00A         	goto	i2u461_41
  2138  0015DC  EFF3  F00A         	goto	i2u461_40
  2139  0015E0                     i2u461_41:
  2140  0015E0  0E01               	movlw	1
  2141  0015E2  EFF4  F00A         	goto	i2u462_40
  2142  0015E6                     i2u461_40:
  2143  0015E6  0E00               	movlw	0
  2144  0015E8                     i2u462_40:
  2145  0015E8  6E4C               	movwf	_vfpfcnvrt$1347^0,c
  2146  0015EA  6A4D               	clrf	(_vfpfcnvrt$1347+1)^0,c
  2147  0015EC  504C               	movf	_vfpfcnvrt$1347^0,w,c
  2148  0015EE  104D               	iorwf	(_vfpfcnvrt$1347+1)^0,w,c
  2149  0015F0  A4D8               	btfss	status,2,c
  2150  0015F2  EFFD  F00A         	goto	i2u463_41
  2151  0015F6  EFFF  F00A         	goto	i2u463_40
  2152  0015FA                     i2u463_41:
  2153  0015FA  EFCC  F00A         	goto	i2l3874
  2154  0015FE                     i2u463_40:
  2155  0015FE                     i2l3882:
  2156                           
  2157                           ;C:\Program Files\Microchip\xc8\v2.20\pic\sources\c99\common\doprnt.c: 757:         ct[0
      +                          ] = tolower((int)(*fmt)[0]);
  2158  0015FE  C042  FFD9         	movff	vfpfcnvrt@fmt,fsr2l
  2159  001602  C043  FFDA         	movff	vfpfcnvrt@fmt+1,fsr2h
  2160  001606  CFDE FFF6          	movff	postinc2,tblptrl
  2161  00160A  CFDD FFF7          	movff	postdec2,tblptrh
  2162  00160E                     	if	0	;tblptru may be non-zero
  2163  00160E                     	endif
  2164  00160E                     	if	0	;tblptru may be non-zero
  2165  00160E                     	endif
  2166  00160E  0008               	tblrd		*
  2167  001610  50F5               	movf	tablat,w,c
  2168  001612  6E07               	movwf	tolower@c^0,c
  2169  001614  6A08               	clrf	(tolower@c+1)^0,c
  2170  001616  EC8A  F01A         	call	_tolower	;wreg free
  2171  00161A  5007               	movf	?_tolower^0,w,c
  2172  00161C  6E54               	movwf	vfpfcnvrt@ct^0,c
  2173  00161E                     
  2174                           ;C:\Program Files\Microchip\xc8\v2.20\pic\sources\c99\common\doprnt.c: 758:         if (
      +                          ct[0]) {
  2175  00161E  5054               	movf	vfpfcnvrt@ct^0,w,c
  2176  001620  B4D8               	btfsc	status,2,c
  2177  001622  EF15  F00B         	goto	i2u464_41
  2178  001626  EF17  F00B         	goto	i2u464_40
  2179  00162A                     i2u464_41:
  2180  00162A  EF4F  F00B         	goto	i2l3892
  2181  00162E                     i2u464_40:
  2182  00162E                     
  2183                           ;C:\Program Files\Microchip\xc8\v2.20\pic\sources\c99\common\doprnt.c: 759:             
      +                          ct[1] = tolower((int)(*fmt)[1]);
  2184  00162E  C042  FFD9         	movff	vfpfcnvrt@fmt,fsr2l
  2185  001632  C043  FFDA         	movff	vfpfcnvrt@fmt+1,fsr2h
  2186  001636  CFDE F046          	movff	postinc2,??_vfpfcnvrt
  2187  00163A  CFDD F047          	movff	postdec2,??_vfpfcnvrt+1
  2188  00163E  0E01               	movlw	1
  2189  001640  2646               	addwf	??_vfpfcnvrt^0,f,c
  2190  001642  0E00               	movlw	0
  2191  001644  2247               	addwfc	(??_vfpfcnvrt+1)^0,f,c
  2192  001646  C046  FFF6         	movff	??_vfpfcnvrt,tblptrl
  2193  00164A  C047  FFF7         	movff	??_vfpfcnvrt+1,tblptrh
  2194  00164E                     	if	0	;tblptru may be non-zero
  2195  00164E                     	endif
  2196  00164E                     	if	0	;tblptru may be non-zero
  2197  00164E                     	endif
  2198  00164E  0008               	tblrd		*
  2199  001650  50F5               	movf	tablat,w,c
  2200  001652  6E07               	movwf	tolower@c^0,c
  2201  001654  6A08               	clrf	(tolower@c+1)^0,c
  2202  001656  EC8A  F01A         	call	_tolower	;wreg free
  2203  00165A  5007               	movf	?_tolower^0,w,c
  2204  00165C  6E55               	movwf	(vfpfcnvrt@ct+1)^0,c
  2205  00165E                     
  2206                           ;C:\Program Files\Microchip\xc8\v2.20\pic\sources\c99\common\doprnt.c: 760:             
      +                          if (ct[1]) {
  2207  00165E  5055               	movf	(vfpfcnvrt@ct+1)^0,w,c
  2208  001660  B4D8               	btfsc	status,2,c
  2209  001662  EF35  F00B         	goto	i2u465_41
  2210  001666  EF37  F00B         	goto	i2u465_40
  2211  00166A                     i2u465_41:
  2212  00166A  EF4F  F00B         	goto	i2l3892
  2213  00166E                     i2u465_40:
  2214  00166E                     
  2215                           ;C:\Program Files\Microchip\xc8\v2.20\pic\sources\c99\common\doprnt.c: 761:             
      +                              ct[2] = tolower((int)(*fmt)[2]);
  2216  00166E  C042  FFD9         	movff	vfpfcnvrt@fmt,fsr2l
  2217  001672  C043  FFDA         	movff	vfpfcnvrt@fmt+1,fsr2h
  2218  001676  CFDE F046          	movff	postinc2,??_vfpfcnvrt
  2219  00167A  CFDD F047          	movff	postdec2,??_vfpfcnvrt+1
  2220  00167E  0E02               	movlw	2
  2221  001680  2646               	addwf	??_vfpfcnvrt^0,f,c
  2222  001682  0E00               	movlw	0
  2223  001684  2247               	addwfc	(??_vfpfcnvrt+1)^0,f,c
  2224  001686  C046  FFF6         	movff	??_vfpfcnvrt,tblptrl
  2225  00168A  C047  FFF7         	movff	??_vfpfcnvrt+1,tblptrh
  2226  00168E                     	if	0	;tblptru may be non-zero
  2227  00168E                     	endif
  2228  00168E                     	if	0	;tblptru may be non-zero
  2229  00168E                     	endif
  2230  00168E  0008               	tblrd		*
  2231  001690  50F5               	movf	tablat,w,c
  2232  001692  6E07               	movwf	tolower@c^0,c
  2233  001694  6A08               	clrf	(tolower@c+1)^0,c
  2234  001696  EC8A  F01A         	call	_tolower	;wreg free
  2235  00169A  5007               	movf	?_tolower^0,w,c
  2236  00169C  6E56               	movwf	(vfpfcnvrt@ct+2)^0,c
  2237  00169E                     i2l3892:
  2238                           
  2239                           ;C:\Program Files\Microchip\xc8\v2.20\pic\sources\c99\common\doprnt.c: 920:         if (
      +                          ct[0] == 'f') {
  2240  00169E  0E66               	movlw	102
  2241  0016A0  1854               	xorwf	vfpfcnvrt@ct^0,w,c
  2242  0016A2  A4D8               	btfss	status,2,c
  2243  0016A4  EF56  F00B         	goto	i2u466_41
  2244  0016A8  EF58  F00B         	goto	i2u466_40
  2245  0016AC                     i2u466_41:
  2246  0016AC  EF98  F00B         	goto	i2l3904
  2247  0016B0                     i2u466_40:
  2248  0016B0                     
  2249                           ;C:\Program Files\Microchip\xc8\v2.20\pic\sources\c99\common\doprnt.c: 922:             
      +                          c = (*fmt)[0];
  2250  0016B0  C042  FFD9         	movff	vfpfcnvrt@fmt,fsr2l
  2251  0016B4  C043  FFDA         	movff	vfpfcnvrt@fmt+1,fsr2h
  2252  0016B8  CFDE FFF6          	movff	postinc2,tblptrl
  2253  0016BC  CFDD FFF7          	movff	postdec2,tblptrh
  2254  0016C0                     	if	0	;tblptru may be non-zero
  2255  0016C0                     	endif
  2256  0016C0                     	if	0	;tblptru may be non-zero
  2257  0016C0                     	endif
  2258  0016C0  0008               	tblrd		*
  2259  0016C2  CFF5 F057          	movff	tablat,vfpfcnvrt@c
  2260  0016C6                     
  2261                           ;C:\Program Files\Microchip\xc8\v2.20\pic\sources\c99\common\doprnt.c: 923:             
      +                          ++*fmt;
  2262  0016C6  C042  FFD9         	movff	vfpfcnvrt@fmt,fsr2l
  2263  0016CA  C043  FFDA         	movff	vfpfcnvrt@fmt+1,fsr2h
  2264  0016CE  2ADE               	incf	postinc2,f,c
  2265  0016D0  0E00               	movlw	0
  2266  0016D2  22DD               	addwfc	postdec2,f,c
  2267  0016D4                     
  2268                           ;C:\Program Files\Microchip\xc8\v2.20\pic\sources\c99\common\doprnt.c: 924:             
      +                          f = (long double)(*(double *)__va_arg(*(double **)ap, (double)0));
  2269  0016D4  C044  FFD9         	movff	vfpfcnvrt@ap,fsr2l
  2270  0016D8  C045  FFDA         	movff	vfpfcnvrt@ap+1,fsr2h
  2271  0016DC  CFDF F046          	movff	indf2,??_vfpfcnvrt
  2272  0016E0  0E04               	movlw	4
  2273  0016E2  26DE               	addwf	postinc2,f,c
  2274  0016E4  CFDF F047          	movff	indf2,??_vfpfcnvrt+1
  2275  0016E8  0E00               	movlw	0
  2276  0016EA  22DD               	addwfc	postdec2,f,c
  2277  0016EC  C046  FFD9         	movff	??_vfpfcnvrt,fsr2l
  2278  0016F0  C047  FFDA         	movff	??_vfpfcnvrt+1,fsr2h
  2279  0016F4  CFDE F050          	movff	postinc2,vfpfcnvrt@f
  2280  0016F8  CFDE F051          	movff	postinc2,vfpfcnvrt@f+1
  2281  0016FC  CFDE F052          	movff	postinc2,vfpfcnvrt@f+2
  2282  001700  CFDE F053          	movff	postinc2,vfpfcnvrt@f+3
  2283  001704                     i2l3900:
  2284                           
  2285                           ;C:\Program Files\Microchip\xc8\v2.20\pic\sources\c99\common\doprnt.c: 926:             
      +                          return efgtoa(fp, f, c);
  2286  001704  C040  F034         	movff	vfpfcnvrt@fp,efgtoa@fp
  2287  001708  C041  F035         	movff	vfpfcnvrt@fp+1,efgtoa@fp+1
  2288  00170C  C050  F036         	movff	vfpfcnvrt@f,efgtoa@f
  2289  001710  C051  F037         	movff	vfpfcnvrt@f+1,efgtoa@f+1
  2290  001714  C052  F038         	movff	vfpfcnvrt@f+2,efgtoa@f+2
  2291  001718  C053  F039         	movff	vfpfcnvrt@f+3,efgtoa@f+3
  2292  00171C  C057  F03A         	movff	vfpfcnvrt@c,efgtoa@c
  2293  001720  EC11  F004         	call	_efgtoa	;wreg free
  2294  001724  C034  F040         	movff	?_efgtoa,?_vfpfcnvrt
  2295  001728  C035  F041         	movff	?_efgtoa+1,?_vfpfcnvrt+1
  2296  00172C  EF7B  F00C         	goto	i2l974
  2297  001730                     i2l3904:
  2298                           
  2299                           ;C:\Program Files\Microchip\xc8\v2.20\pic\sources\c99\common\doprnt.c: 928:         if (
      +                          !strncmp(ct, "lf", ((sizeof("lf")/sizeof("lf"[0]))-1))) {
  2300  001730  0E54               	movlw	low vfpfcnvrt@ct
  2301  001732  6E01               	movwf	strncmp@_l^0,c
  2302  001734  0E00               	movlw	high vfpfcnvrt@ct
  2303  001736  6E02               	movwf	(strncmp@_l+1)^0,c
  2304  001738  0E1D               	movlw	low STR_10
  2305  00173A  6E03               	movwf	strncmp@_r^0,c
  2306  00173C  0E08               	movlw	high STR_10
  2307  00173E  6E04               	movwf	(strncmp@_r+1)^0,c
  2308  001740  0E00               	movlw	0
  2309  001742  6E06               	movwf	(strncmp@n+1)^0,c
  2310  001744  0E02               	movlw	2
  2311  001746  6E05               	movwf	strncmp@n^0,c
  2312  001748  EC71  F017         	call	_strncmp	;wreg free
  2313  00174C  5001               	movf	?_strncmp^0,w,c
  2314  00174E  1002               	iorwf	(?_strncmp+1)^0,w,c
  2315  001750  A4D8               	btfss	status,2,c
  2316  001752  EFAD  F00B         	goto	i2u467_41
  2317  001756  EFAF  F00B         	goto	i2u467_40
  2318  00175A                     i2u467_41:
  2319  00175A  EF2A  F00C         	goto	i2l3920
  2320  00175E                     i2u467_40:
  2321  00175E                     
  2322                           ;C:\Program Files\Microchip\xc8\v2.20\pic\sources\c99\common\doprnt.c: 931:             
      +                          if ((0 ? isupper((int)(*fmt)[0]) : ((unsigned)((int)(*fmt)[0])-'A') < 26)) {
  2323  00175E  C042  FFD9         	movff	vfpfcnvrt@fmt,fsr2l
  2324  001762  C043  FFDA         	movff	vfpfcnvrt@fmt+1,fsr2h
  2325  001766  CFDE F046          	movff	postinc2,??_vfpfcnvrt
  2326  00176A  CFDD F047          	movff	postdec2,??_vfpfcnvrt+1
  2327  00176E  0E01               	movlw	1
  2328  001770  2646               	addwf	??_vfpfcnvrt^0,f,c
  2329  001772  0E00               	movlw	0
  2330  001774  2247               	addwfc	(??_vfpfcnvrt+1)^0,f,c
  2331  001776  C046  FFF6         	movff	??_vfpfcnvrt,tblptrl
  2332  00177A  C047  FFF7         	movff	??_vfpfcnvrt+1,tblptrh
  2333  00177E                     	if	0	;tblptru may be non-zero
  2334  00177E                     	endif
  2335  00177E                     	if	0	;tblptru may be non-zero
  2336  00177E                     	endif
  2337  00177E  0008               	tblrd		*
  2338  001780  CFF5 F057          	movff	tablat,vfpfcnvrt@c
  2339  001784  0EBF               	movlw	191
  2340  001786  6E46               	movwf	??_vfpfcnvrt^0,c
  2341  001788  0EFF               	movlw	255
  2342  00178A  6E47               	movwf	(??_vfpfcnvrt+1)^0,c
  2343  00178C  C042  FFD9         	movff	vfpfcnvrt@fmt,fsr2l
  2344  001790  C043  FFDA         	movff	vfpfcnvrt@fmt+1,fsr2h
  2345  001794  CFDE FFF6          	movff	postinc2,tblptrl
  2346  001798  CFDD FFF7          	movff	postdec2,tblptrh
  2347  00179C                     	if	0	;tblptru may be non-zero
  2348  00179C                     	endif
  2349  00179C                     	if	0	;tblptru may be non-zero
  2350  00179C                     	endif
  2351  00179C  0008               	tblrd		*
  2352  00179E  50F5               	movf	tablat,w,c
  2353  0017A0  6E48               	movwf	(??_vfpfcnvrt+2)^0,c
  2354  0017A2  6A49               	clrf	(??_vfpfcnvrt+3)^0,c
  2355  0017A4  5046               	movf	??_vfpfcnvrt^0,w,c
  2356  0017A6  2648               	addwf	(??_vfpfcnvrt+2)^0,f,c
  2357  0017A8  5047               	movf	(??_vfpfcnvrt+1)^0,w,c
  2358  0017AA  2249               	addwfc	(??_vfpfcnvrt+3)^0,f,c
  2359  0017AC  5049               	movf	(??_vfpfcnvrt+3)^0,w,c
  2360  0017AE  E10A               	bnz	i2u468_40
  2361  0017B0  0E1A               	movlw	26
  2362  0017B2  5C48               	subwf	(??_vfpfcnvrt+2)^0,w,c
  2363  0017B4  A0D8               	btfss	status,0,c
  2364  0017B6  EFDF  F00B         	goto	i2u468_41
  2365  0017BA  EFE2  F00B         	goto	i2u468_40
  2366  0017BE                     i2u468_41:
  2367  0017BE  0E01               	movlw	1
  2368  0017C0  EFE3  F00B         	goto	i2u469_40
  2369  0017C4                     i2u468_40:
  2370  0017C4  0E00               	movlw	0
  2371  0017C6                     i2u469_40:
  2372  0017C6  6E4E               	movwf	_vfpfcnvrt$1351^0,c
  2373  0017C8  6A4F               	clrf	(_vfpfcnvrt$1351+1)^0,c
  2374  0017CA  504E               	movf	_vfpfcnvrt$1351^0,w,c
  2375  0017CC  104F               	iorwf	(_vfpfcnvrt$1351+1)^0,w,c
  2376  0017CE  B4D8               	btfsc	status,2,c
  2377  0017D0  EFEC  F00B         	goto	i2u470_41
  2378  0017D4  EFEE  F00B         	goto	i2u470_40
  2379  0017D8                     i2u470_41:
  2380  0017D8  EF08  F00C         	goto	i2l3914
  2381  0017DC                     i2u470_40:
  2382  0017DC                     
  2383                           ;C:\Program Files\Microchip\xc8\v2.20\pic\sources\c99\common\doprnt.c: 932:             
      +                              f = (*(long double *)__va_arg(*(long double **)ap, (long double)0));
  2384  0017DC  C044  FFD9         	movff	vfpfcnvrt@ap,fsr2l
  2385  0017E0  C045  FFDA         	movff	vfpfcnvrt@ap+1,fsr2h
  2386  0017E4  CFDF F046          	movff	indf2,??_vfpfcnvrt
  2387  0017E8  0E04               	movlw	4
  2388  0017EA  26DE               	addwf	postinc2,f,c
  2389  0017EC  CFDF F047          	movff	indf2,??_vfpfcnvrt+1
  2390  0017F0  0E00               	movlw	0
  2391  0017F2  22DD               	addwfc	postdec2,f,c
  2392  0017F4  C046  FFD9         	movff	??_vfpfcnvrt,fsr2l
  2393  0017F8  C047  FFDA         	movff	??_vfpfcnvrt+1,fsr2h
  2394  0017FC  CFDE F050          	movff	postinc2,vfpfcnvrt@f
  2395  001800  CFDE F051          	movff	postinc2,vfpfcnvrt@f+1
  2396  001804  CFDE F052          	movff	postinc2,vfpfcnvrt@f+2
  2397  001808  CFDE F053          	movff	postinc2,vfpfcnvrt@f+3
  2398                           
  2399                           ;C:\Program Files\Microchip\xc8\v2.20\pic\sources\c99\common\doprnt.c: 933:             
      +                          } else {
  2400  00180C  EF20  F00C         	goto	i2l981
  2401  001810                     i2l3914:
  2402                           
  2403                           ;C:\Program Files\Microchip\xc8\v2.20\pic\sources\c99\common\doprnt.c: 934:             
      +                              f = (long double)(*(double *)__va_arg(*(double **)ap, (double)0));
  2404  001810  C044  FFD9         	movff	vfpfcnvrt@ap,fsr2l
  2405  001814  C045  FFDA         	movff	vfpfcnvrt@ap+1,fsr2h
  2406  001818  CFDF F046          	movff	indf2,??_vfpfcnvrt
  2407  00181C  0E04               	movlw	4
  2408  00181E  26DE               	addwf	postinc2,f,c
  2409  001820  CFDF F047          	movff	indf2,??_vfpfcnvrt+1
  2410  001824  0E00               	movlw	0
  2411  001826  22DD               	addwfc	postdec2,f,c
  2412  001828  C046  FFD9         	movff	??_vfpfcnvrt,fsr2l
  2413  00182C  C047  FFDA         	movff	??_vfpfcnvrt+1,fsr2h
  2414  001830  CFDE F050          	movff	postinc2,vfpfcnvrt@f
  2415  001834  CFDE F051          	movff	postinc2,vfpfcnvrt@f+1
  2416  001838  CFDE F052          	movff	postinc2,vfpfcnvrt@f+2
  2417  00183C  CFDE F053          	movff	postinc2,vfpfcnvrt@f+3
  2418  001840                     i2l981:
  2419                           
  2420                           ;C:\Program Files\Microchip\xc8\v2.20\pic\sources\c99\common\doprnt.c: 936:             
      +                          *fmt += ((sizeof("lf")/sizeof("lf"[0]))-1);
  2421  001840  0E02               	movlw	2
  2422  001842  C042  FFD9         	movff	vfpfcnvrt@fmt,fsr2l
  2423  001846  C043  FFDA         	movff	vfpfcnvrt@fmt+1,fsr2h
  2424  00184A  26DE               	addwf	postinc2,f,c
  2425  00184C  0E00               	movlw	0
  2426  00184E  22DD               	addwfc	postdec2,f,c
  2427  001850  EF82  F00B         	goto	i2l3900
  2428  001854                     i2l3920:
  2429                           
  2430                           ;C:\Program Files\Microchip\xc8\v2.20\pic\sources\c99\common\doprnt.c: 1350:         if 
      +                          ((*fmt)[0] == '%') {
  2431  001854  C042  FFD9         	movff	vfpfcnvrt@fmt,fsr2l
  2432  001858  C043  FFDA         	movff	vfpfcnvrt@fmt+1,fsr2h
  2433  00185C  CFDE FFF6          	movff	postinc2,tblptrl
  2434  001860  CFDD FFF7          	movff	postdec2,tblptrh
  2435  001864                     	if	0	;tblptru may be non-zero
  2436  001864                     	endif
  2437  001864                     	if	0	;tblptru may be non-zero
  2438  001864                     	endif
  2439  001864  0008               	tblrd		*
  2440  001866  50F5               	movf	tablat,w,c
  2441  001868  0A25               	xorlw	37
  2442  00186A  A4D8               	btfss	status,2,c
  2443  00186C  EF3A  F00C         	goto	i2u471_41
  2444  001870  EF3C  F00C         	goto	i2u471_40
  2445  001874                     i2u471_41:
  2446  001874  EF53  F00C         	goto	i2l3930
  2447  001878                     i2u471_40:
  2448  001878                     
  2449                           ;C:\Program Files\Microchip\xc8\v2.20\pic\sources\c99\common\doprnt.c: 1351:            
      +                           ++*fmt;
  2450  001878  C042  FFD9         	movff	vfpfcnvrt@fmt,fsr2l
  2451  00187C  C043  FFDA         	movff	vfpfcnvrt@fmt+1,fsr2h
  2452  001880  2ADE               	incf	postinc2,f,c
  2453  001882  0E00               	movlw	0
  2454  001884  22DD               	addwfc	postdec2,f,c
  2455  001886                     
  2456                           ;C:\Program Files\Microchip\xc8\v2.20\pic\sources\c99\common\doprnt.c: 1352:            
      +                           fputc((int)'%', fp);
  2457  001886  0E00               	movlw	0
  2458  001888  6E02               	movwf	(fputc@c+1)^0,c
  2459  00188A  0E25               	movlw	37
  2460  00188C  6E01               	movwf	fputc@c^0,c
  2461  00188E  C040  F003         	movff	vfpfcnvrt@fp,fputc@fp
  2462  001892  C041  F004         	movff	vfpfcnvrt@fp+1,fputc@fp+1
  2463  001896  ECDC  F017         	call	_fputc	;wreg free
  2464  00189A                     i2l3926:
  2465                           
  2466                           ;C:\Program Files\Microchip\xc8\v2.20\pic\sources\c99\common\doprnt.c: 1353:            
      +                           return 1;
  2467  00189A  0E00               	movlw	0
  2468  00189C  6E41               	movwf	(?_vfpfcnvrt+1)^0,c
  2469  00189E  0E01               	movlw	1
  2470  0018A0  6E40               	movwf	?_vfpfcnvrt^0,c
  2471  0018A2  EF7B  F00C         	goto	i2l974
  2472  0018A6                     i2l3930:
  2473                           
  2474                           ;C:\Program Files\Microchip\xc8\v2.20\pic\sources\c99\common\doprnt.c: 1357:         ++*
      +                          fmt;
  2475  0018A6  C042  FFD9         	movff	vfpfcnvrt@fmt,fsr2l
  2476  0018AA  C043  FFDA         	movff	vfpfcnvrt@fmt+1,fsr2h
  2477  0018AE  2ADE               	incf	postinc2,f,c
  2478  0018B0  0E00               	movlw	0
  2479  0018B2  22DD               	addwfc	postdec2,f,c
  2480  0018B4                     
  2481                           ;C:\Program Files\Microchip\xc8\v2.20\pic\sources\c99\common\doprnt.c: 1358:         ret
      +                          urn 0;
  2482  0018B4  0E00               	movlw	0
  2483  0018B6  6E41               	movwf	(?_vfpfcnvrt+1)^0,c
  2484  0018B8  0E00               	movlw	0
  2485  0018BA  6E40               	movwf	?_vfpfcnvrt^0,c
  2486  0018BC  EF7B  F00C         	goto	i2l974
  2487  0018C0                     i2l3936:
  2488                           
  2489                           ;C:\Program Files\Microchip\xc8\v2.20\pic\sources\c99\common\doprnt.c: 1362:     fputc((
      +                          int)(*fmt)[0], fp);
  2490  0018C0  C042  FFD9         	movff	vfpfcnvrt@fmt,fsr2l
  2491  0018C4  C043  FFDA         	movff	vfpfcnvrt@fmt+1,fsr2h
  2492  0018C8  CFDE FFF6          	movff	postinc2,tblptrl
  2493  0018CC  CFDD FFF7          	movff	postdec2,tblptrh
  2494  0018D0                     	if	0	;tblptru may be non-zero
  2495  0018D0                     	endif
  2496  0018D0                     	if	0	;tblptru may be non-zero
  2497  0018D0                     	endif
  2498  0018D0  0008               	tblrd		*
  2499  0018D2  50F5               	movf	tablat,w,c
  2500  0018D4  6E01               	movwf	fputc@c^0,c
  2501  0018D6  6A02               	clrf	(fputc@c+1)^0,c
  2502  0018D8  C040  F003         	movff	vfpfcnvrt@fp,fputc@fp
  2503  0018DC  C041  F004         	movff	vfpfcnvrt@fp+1,fputc@fp+1
  2504  0018E0  ECDC  F017         	call	_fputc	;wreg free
  2505  0018E4                     
  2506                           ;C:\Program Files\Microchip\xc8\v2.20\pic\sources\c99\common\doprnt.c: 1363:     ++*fmt;
  2507  0018E4  C042  FFD9         	movff	vfpfcnvrt@fmt,fsr2l
  2508  0018E8  C043  FFDA         	movff	vfpfcnvrt@fmt+1,fsr2h
  2509  0018EC  2ADE               	incf	postinc2,f,c
  2510  0018EE  0E00               	movlw	0
  2511  0018F0  22DD               	addwfc	postdec2,f,c
  2512  0018F2  EF4D  F00C         	goto	i2l3926
  2513  0018F6                     i2l974:
  2514  0018F6  0012               	return		;funcret
  2515  0018F8                     __end_of_vfpfcnvrt:
  2516                           	callstack 0
  2517                           
  2518 ;; *************** function _strncmp *****************
  2519 ;; Defined at:
  2520 ;;		line 3 in file "C:\Program Files\Microchip\xc8\v2.20\pic\sources\c99\common\strncmp.c"
  2521 ;; Parameters:    Size  Location     Type
  2522 ;;  _l              2    0[COMRAM] PTR const unsigned char 
  2523 ;;		 -> vfpfcnvrt@ct(3), 
  2524 ;;  _r              2    2[COMRAM] PTR const unsigned char 
  2525 ;;		 -> STR_12(3), 
  2526 ;;  n               2    4[COMRAM] unsigned int 
  2527 ;; Auto vars:     Size  Location     Type
  2528 ;;  r               2    9[COMRAM] PTR const unsigned char 
  2529 ;;		 -> STR_12(3), 
  2530 ;;  l               2    7[COMRAM] PTR const unsigned char 
  2531 ;;		 -> vfpfcnvrt@ct(3), 
  2532 ;; Return value:  Size  Location     Type
  2533 ;;                  2    0[COMRAM] int 
  2534 ;; Registers used:
  2535 ;;		wreg, fsr2l, fsr2h, status,2, status,0, tblptrl, tblptrh, tblptru
  2536 ;; Tracked objects:
  2537 ;;		On entry : 0/0
  2538 ;;		On exit  : 0/0
  2539 ;;		Unchanged: 0/0
  2540 ;; Data sizes:     COMRAM   BANK0   BANK1   BANK2   BANK3   BANK4   BANK5   BANK6   BANK7
  2541 ;;      Params:         6       0       0       0       0       0       0       0       0
  2542 ;;      Locals:         4       0       0       0       0       0       0       0       0
  2543 ;;      Temps:          1       0       0       0       0       0       0       0       0
  2544 ;;      Totals:        11       0       0       0       0       0       0       0       0
  2545 ;;Total ram usage:       11 bytes
  2546 ;; Hardware stack levels used:    1
  2547 ;; This function calls:
  2548 ;;		Nothing
  2549 ;; This function is called by:
  2550 ;;		_vfpfcnvrt
  2551 ;; This function uses a non-reentrant model
  2552 ;;
  2553                           
  2554                           	psect	text11
  2555  002EE2                     __ptext11:
  2556                           	callstack 0
  2557  002EE2                     _strncmp:
  2558                           	callstack 23
  2559  002EE2  C001  F008         	movff	strncmp@_l,strncmp@l
  2560  002EE6  C002  F009         	movff	strncmp@_l+1,strncmp@l+1
  2561  002EEA  C003  F00A         	movff	strncmp@_r,strncmp@r
  2562  002EEE  C004  F00B         	movff	strncmp@_r+1,strncmp@r+1
  2563  002EF2  0605               	decf	strncmp@n^0,f,c
  2564  002EF4  A0D8               	btfss	status,0,c
  2565  002EF6  0606               	decf	(strncmp@n+1)^0,f,c
  2566  002EF8  2805               	incf	strncmp@n^0,w,c
  2567  002EFA  E106               	bnz	i2u451_41
  2568  002EFC  2806               	incf	(strncmp@n+1)^0,w,c
  2569  002EFE  A4D8               	btfss	status,2,c
  2570  002F00  EF84  F017         	goto	i2u451_41
  2571  002F04  EF86  F017         	goto	i2u451_40
  2572  002F08                     i2u451_41:
  2573  002F08  EF93  F017         	goto	i2l3810
  2574  002F0C                     i2u451_40:
  2575  002F0C  0E00               	movlw	0
  2576  002F0E  6E02               	movwf	(?_strncmp+1)^0,c
  2577  002F10  0E00               	movlw	0
  2578  002F12  6E01               	movwf	?_strncmp^0,c
  2579  002F14  EFDB  F017         	goto	i2l1102
  2580  002F18                     i2l3808:
  2581  002F18  4A08               	infsnz	strncmp@l^0,f,c
  2582  002F1A  2A09               	incf	(strncmp@l+1)^0,f,c
  2583  002F1C  4A0A               	infsnz	strncmp@r^0,f,c
  2584  002F1E  2A0B               	incf	(strncmp@r+1)^0,f,c
  2585  002F20  0605               	decf	strncmp@n^0,f,c
  2586  002F22  A0D8               	btfss	status,0,c
  2587  002F24  0606               	decf	(strncmp@n+1)^0,f,c
  2588  002F26                     i2l3810:
  2589  002F26  C008  FFD9         	movff	strncmp@l,fsr2l
  2590  002F2A  C009  FFDA         	movff	strncmp@l+1,fsr2h
  2591  002F2E  50DF               	movf	indf2,w,c
  2592  002F30  B4D8               	btfsc	status,2,c
  2593  002F32  EF9D  F017         	goto	i2u452_41
  2594  002F36  EF9F  F017         	goto	i2u452_40
  2595  002F3A                     i2u452_41:
  2596  002F3A  EFCA  F017         	goto	i2l3818
  2597  002F3E                     i2u452_40:
  2598  002F3E  C00A  FFF6         	movff	strncmp@r,tblptrl
  2599  002F42  C00B  FFF7         	movff	strncmp@r+1,tblptrh
  2600  002F46                     	if	0	;tblptru may be non-zero
  2601  002F46                     	endif
  2602  002F46                     	if	0	;tblptru may be non-zero
  2603  002F46                     	endif
  2604  002F46  0008               	tblrd		*
  2605  002F48  50F5               	movf	tablat,w,c
  2606  002F4A  0900               	iorlw	0
  2607  002F4C  B4D8               	btfsc	status,2,c
  2608  002F4E  EFAB  F017         	goto	i2u453_41
  2609  002F52  EFAD  F017         	goto	i2u453_40
  2610  002F56                     i2u453_41:
  2611  002F56  EFCA  F017         	goto	i2l3818
  2612  002F5A                     i2u453_40:
  2613  002F5A  5005               	movf	strncmp@n^0,w,c
  2614  002F5C  1006               	iorwf	(strncmp@n+1)^0,w,c
  2615  002F5E  B4D8               	btfsc	status,2,c
  2616  002F60  EFB4  F017         	goto	i2u454_41
  2617  002F64  EFB6  F017         	goto	i2u454_40
  2618  002F68                     i2u454_41:
  2619  002F68  EFCA  F017         	goto	i2l3818
  2620  002F6C                     i2u454_40:
  2621  002F6C  C008  FFD9         	movff	strncmp@l,fsr2l
  2622  002F70  C009  FFDA         	movff	strncmp@l+1,fsr2h
  2623  002F74  50DF               	movf	indf2,w,c
  2624  002F76  6E07               	movwf	??_strncmp^0,c
  2625  002F78  C00A  FFF6         	movff	strncmp@r,tblptrl
  2626  002F7C  C00B  FFF7         	movff	strncmp@r+1,tblptrh
  2627  002F80                     	if	0	;tblptru may be non-zero
  2628  002F80                     	endif
  2629  002F80                     	if	0	;tblptru may be non-zero
  2630  002F80                     	endif
  2631  002F80  0008               	tblrd		*
  2632  002F82  50F5               	movf	tablat,w,c
  2633  002F84  1807               	xorwf	??_strncmp^0,w,c
  2634  002F86  B4D8               	btfsc	status,2,c
  2635  002F88  EFC8  F017         	goto	i2u455_41
  2636  002F8C  EFCA  F017         	goto	i2u455_40
  2637  002F90                     i2u455_41:
  2638  002F90  EF8C  F017         	goto	i2l3808
  2639  002F94                     i2u455_40:
  2640  002F94                     i2l3818:
  2641  002F94  C008  FFD9         	movff	strncmp@l,fsr2l
  2642  002F98  C009  FFDA         	movff	strncmp@l+1,fsr2h
  2643  002F9C  50DF               	movf	indf2,w,c
  2644  002F9E  6E07               	movwf	??_strncmp^0,c
  2645  002FA0  C00A  FFF6         	movff	strncmp@r,tblptrl
  2646  002FA4  C00B  FFF7         	movff	strncmp@r+1,tblptrh
  2647  002FA8                     	if	0	;tblptru may be non-zero
  2648  002FA8                     	endif
  2649  002FA8                     	if	0	;tblptru may be non-zero
  2650  002FA8                     	endif
  2651  002FA8  0008               	tblrd		*
  2652  002FAA  50F5               	movf	tablat,w,c
  2653  002FAC  5C07               	subwf	??_strncmp^0,w,c
  2654  002FAE  6E01               	movwf	?_strncmp^0,c
  2655  002FB0  6A02               	clrf	(?_strncmp+1)^0,c
  2656  002FB2  A0D8               	btfss	status,0,c
  2657  002FB4  0602               	decf	(?_strncmp+1)^0,f,c
  2658  002FB6                     i2l1102:
  2659  002FB6  0012               	return		;funcret
  2660  002FB8                     __end_of_strncmp:
  2661                           	callstack 0
  2662                           
  2663 ;; *************** function _efgtoa *****************
  2664 ;; Defined at:
  2665 ;;		line 319 in file "C:\Program Files\Microchip\xc8\v2.20\pic\sources\c99\common\doprnt.c"
  2666 ;; Parameters:    Size  Location     Type
  2667 ;;  fp              2   51[COMRAM] PTR struct _IO_FILE
  2668 ;;		 -> sprintf@f(6), 
  2669 ;;  f               4   53[COMRAM] PTR struct _IO_FILE
  2670 ;;  c               1   57[COMRAM] unsigned char 
  2671 ;; Auto vars:     Size  Location     Type
  2672 ;;  u               4   52[BANK0 ] unsigned char 
  2673 ;;  g               4   44[BANK0 ] unsigned char 
  2674 ;;  l               4   38[BANK0 ] unsigned char 
  2675 ;;  h               4   34[BANK0 ] unsigned char 
  2676 ;;  ou              4    0[BANK0 ] unsigned char 
  2677 ;;  n               2   50[BANK0 ] int 
  2678 ;;  e               2   48[BANK0 ] int 
  2679 ;;  i               2   42[BANK0 ] int 
  2680 ;;  w               2   31[BANK0 ] int 
  2681 ;;  p               2   28[BANK0 ] int 
  2682 ;;  sign            2   26[BANK0 ] int 
  2683 ;;  d               2   24[BANK0 ] int 
  2684 ;;  ne              2   22[BANK0 ] int 
  2685 ;;  m               2   20[BANK0 ] int 
  2686 ;;  pp              2   18[BANK0 ] int 
  2687 ;;  t               2   16[BANK0 ] int 
  2688 ;;  mode            1   33[BANK0 ] unsigned char 
  2689 ;;  nmode           1   30[BANK0 ] unsigned char 
  2690 ;; Return value:  Size  Location     Type
  2691 ;;                  2   51[COMRAM] int 
  2692 ;; Registers used:
  2693 ;;		wreg, fsr1l, fsr1h, fsr2l, fsr2h, status,2, status,0, tblptrl, tblptrh, tblptru, prodl, prodh, cstack
  2694 ;; Tracked objects:
  2695 ;;		On entry : 0/0
  2696 ;;		On exit  : 0/0
  2697 ;;		Unchanged: 0/0
  2698 ;; Data sizes:     COMRAM   BANK0   BANK1   BANK2   BANK3   BANK4   BANK5   BANK6   BANK7
  2699 ;;      Params:         7       0       0       0       0       0       0       0       0
  2700 ;;      Locals:         0      56       0       0       0       0       0       0       0
  2701 ;;      Temps:          5       0       0       0       0       0       0       0       0
  2702 ;;      Totals:        12      56       0       0       0       0       0       0       0
  2703 ;;Total ram usage:       68 bytes
  2704 ;; Hardware stack levels used:    1
  2705 ;; Hardware stack levels required when called:    4
  2706 ;; This function calls:
  2707 ;;		___awdiv
  2708 ;;		___awmod
  2709 ;;		___fladd
  2710 ;;		___fldiv
  2711 ;;		___fleq
  2712 ;;		___flge
  2713 ;;		___flmul
  2714 ;;		___flneg
  2715 ;;		___flsub
  2716 ;;		___fltol
  2717 ;;		___fpclassifyf
  2718 ;;		_floorf
  2719 ;;		_isupper
  2720 ;;		_pad
  2721 ;;		_strcpy
  2722 ;;		_tolower
  2723 ;; This function is called by:
  2724 ;;		_vfpfcnvrt
  2725 ;; This function uses a non-reentrant model
  2726 ;;
  2727                           
  2728                           	psect	text12
  2729  000822                     __ptext12:
  2730                           	callstack 0
  2731  000822                     _efgtoa:
  2732                           	callstack 19
  2733  000822                     
  2734                           ;C:\Program Files\Microchip\xc8\v2.20\pic\sources\c99\common\doprnt.c: 319: static int e
      +                          fgtoa(FILE *fp, long double f, char c);C:\Program Files\Microchip\xc8\v2.20\pic\sources\
      +                          c99\common\doprnt.c: 320: {;C:\Program Files\Microchip\xc8\v2.20\pic\sources\c99\common\
      +                          doprnt.c: 321:     char mode, nmode;;C:\Program Files\Microchip\xc8\v2.20\pic\sources\c9
      +                          9\common\doprnt.c: 322:     int d, e, i, m, n, ne, p, pp, sign, t, w;;C:\Program Files\M
      +                          icrochip\xc8\v2.20\pic\sources\c99\common\doprnt.c: 323:     long double g, h, l, ou, u;
  2735  000822  0E00               	movlw	0
  2736  000824  0100               	movlb	0	; () banked
  2737  000826  6F7B               	movwf	(efgtoa@sign+1)& (0+255),b
  2738  000828  0E00               	movlw	0
  2739  00082A  6F7A               	movwf	efgtoa@sign& (0+255),b
  2740  00082C                     
  2741                           ; BSR set to: 0
  2742                           ;C:\Program Files\Microchip\xc8\v2.20\pic\sources\c99\common\doprnt.c: 327:     g = f;
  2743  00082C  C036  F08C         	movff	efgtoa@f,efgtoa@g
  2744  000830  C037  F08D         	movff	efgtoa@f+1,efgtoa@g+1
  2745  000834  C038  F08E         	movff	efgtoa@f+2,efgtoa@g+2
  2746  000838  C039  F08F         	movff	efgtoa@f+3,efgtoa@g+3
  2747  00083C                     
  2748                           ; BSR set to: 0
  2749                           ;C:\Program Files\Microchip\xc8\v2.20\pic\sources\c99\common\doprnt.c: 328:     if (g < 
      +                          0.0) {
  2750  00083C  BF8F               	btfsc	(efgtoa@g+3)& (0+255),7,b
  2751  00083E  EF25  F004         	goto	i2u392_40
  2752  000842  EF23  F004         	goto	i2u392_41
  2753  000846                     i2u392_41:
  2754  000846  EF3B  F004         	goto	i2l3472
  2755  00084A                     i2u392_40:
  2756  00084A                     
  2757                           ; BSR set to: 0
  2758                           ;C:\Program Files\Microchip\xc8\v2.20\pic\sources\c99\common\doprnt.c: 329:         sign
      +                           = 1;
  2759  00084A  0E00               	movlw	0
  2760  00084C  6F7B               	movwf	(efgtoa@sign+1)& (0+255),b
  2761  00084E  0E01               	movlw	1
  2762  000850  6F7A               	movwf	efgtoa@sign& (0+255),b
  2763  000852                     
  2764                           ; BSR set to: 0
  2765                           ;C:\Program Files\Microchip\xc8\v2.20\pic\sources\c99\common\doprnt.c: 330:         g = 
      +                          -g;
  2766  000852  C08C  F001         	movff	efgtoa@g,___flneg@f1
  2767  000856  C08D  F002         	movff	efgtoa@g+1,___flneg@f1+1
  2768  00085A  C08E  F003         	movff	efgtoa@g+2,___flneg@f1+2
  2769  00085E  C08F  F004         	movff	efgtoa@g+3,___flneg@f1+3
  2770  000862  EC9B  F01B         	call	___flneg	;wreg free
  2771  000866  C001  F08C         	movff	?___flneg,efgtoa@g
  2772  00086A  C002  F08D         	movff	?___flneg+1,efgtoa@g+1
  2773  00086E  C003  F08E         	movff	?___flneg+2,efgtoa@g+2
  2774  000872  C004  F08F         	movff	?___flneg+3,efgtoa@g+3
  2775  000876                     i2l3472:
  2776                           
  2777                           ;C:\Program Files\Microchip\xc8\v2.20\pic\sources\c99\common\doprnt.c: 334:     n = 0;
  2778  000876  0E00               	movlw	0
  2779  000878  0100               	movlb	0	; () banked
  2780  00087A  6F93               	movwf	(efgtoa@n+1)& (0+255),b
  2781  00087C  0E00               	movlw	0
  2782  00087E  6F92               	movwf	efgtoa@n& (0+255),b
  2783  000880                     
  2784                           ; BSR set to: 0
  2785                           ;C:\Program Files\Microchip\xc8\v2.20\pic\sources\c99\common\doprnt.c: 335:     w = widt
      +                          h;
  2786  000880  C0C6  F07F         	movff	_width,efgtoa@w
  2787  000884  C0C7  F080         	movff	_width+1,efgtoa@w+1
  2788  000888                     
  2789                           ; BSR set to: 0
  2790                           ;C:\Program Files\Microchip\xc8\v2.20\pic\sources\c99\common\doprnt.c: 336:     if (sign
      +                           || (flags & (1 << 2))) {
  2791  000888  517A               	movf	efgtoa@sign& (0+255),w,b
  2792  00088A  117B               	iorwf	(efgtoa@sign+1)& (0+255),w,b
  2793  00088C  A4D8               	btfss	status,2,c
  2794  00088E  EF4B  F004         	goto	i2u393_41
  2795  000892  EF4D  F004         	goto	i2u393_40
  2796  000896                     i2u393_41:
  2797  000896  EF54  F004         	goto	i2l3480
  2798  00089A                     i2u393_40:
  2799  00089A                     
  2800                           ; BSR set to: 0
  2801  00089A  A5CA               	btfss	_flags& (0+255),2,b
  2802  00089C  EF52  F004         	goto	i2u394_41
  2803  0008A0  EF54  F004         	goto	i2u394_40
  2804  0008A4                     i2u394_41:
  2805  0008A4  EF6E  F004         	goto	i2l3492
  2806  0008A8                     i2u394_40:
  2807  0008A8                     i2l3480:
  2808                           
  2809                           ; BSR set to: 0
  2810                           ;C:\Program Files\Microchip\xc8\v2.20\pic\sources\c99\common\doprnt.c: 337:         dbuf
      +                          [n] = sign ? '-' : '+';
  2811  0008A8  517A               	movf	efgtoa@sign& (0+255),w,b
  2812  0008AA  117B               	iorwf	(efgtoa@sign+1)& (0+255),w,b
  2813  0008AC  A4D8               	btfss	status,2,c
  2814  0008AE  EF5B  F004         	goto	i2u395_41
  2815  0008B2  EF5D  F004         	goto	i2u395_40
  2816  0008B6                     i2u395_41:
  2817  0008B6  EF63  F004         	goto	i2l3484
  2818  0008BA                     i2u395_40:
  2819  0008BA                     
  2820                           ; BSR set to: 0
  2821  0008BA  0E00               	movlw	0
  2822  0008BC  6F65               	movwf	(_efgtoa$1321+1)& (0+255),b
  2823  0008BE  0E2B               	movlw	43
  2824  0008C0  6F64               	movwf	_efgtoa$1321& (0+255),b
  2825  0008C2  EF67  F004         	goto	i2l3486
  2826  0008C6                     i2l3484:
  2827                           
  2828                           ; BSR set to: 0
  2829  0008C6  0E00               	movlw	0
  2830  0008C8  6F65               	movwf	(_efgtoa$1321+1)& (0+255),b
  2831  0008CA  0E2D               	movlw	45
  2832  0008CC  6F64               	movwf	_efgtoa$1321& (0+255),b
  2833  0008CE                     i2l3486:
  2834                           
  2835                           ; BSR set to: 0
  2836  0008CE  C064  F100         	movff	_efgtoa$1321,_dbuf
  2837  0008D2                     
  2838                           ; BSR set to: 0
  2839                           ;C:\Program Files\Microchip\xc8\v2.20\pic\sources\c99\common\doprnt.c: 338:         ++n;
  2840  0008D2  4B92               	infsnz	efgtoa@n& (0+255),f,b
  2841  0008D4  2B93               	incf	(efgtoa@n+1)& (0+255),f,b
  2842  0008D6                     
  2843                           ; BSR set to: 0
  2844                           ;C:\Program Files\Microchip\xc8\v2.20\pic\sources\c99\common\doprnt.c: 339:         --w;
  2845  0008D6  077F               	decf	efgtoa@w& (0+255),f,b
  2846  0008D8  A0D8               	btfss	status,0,c
  2847  0008DA  0780               	decf	(efgtoa@w+1)& (0+255),f,b
  2848  0008DC                     i2l3492:
  2849                           
  2850                           ; BSR set to: 0
  2851                           ;C:\Program Files\Microchip\xc8\v2.20\pic\sources\c99\common\doprnt.c: 344:         if (
      +                          (0 ? isupper((int)c) : ((unsigned)((int)c)-'A') < 26)) {
  2852  0008DC  C08C  F001         	movff	efgtoa@g,___fpclassifyf@x
  2853  0008E0  C08D  F002         	movff	efgtoa@g+1,___fpclassifyf@x+1
  2854  0008E4  C08E  F003         	movff	efgtoa@g+2,___fpclassifyf@x+2
  2855  0008E8  C08F  F004         	movff	efgtoa@g+3,___fpclassifyf@x+3
  2856  0008EC  ECF2  F016         	call	___fpclassifyf	;wreg free
  2857  0008F0  0401               	decf	?___fpclassifyf^0,w,c
  2858  0008F2  1002               	iorwf	(?___fpclassifyf+1)^0,w,c
  2859  0008F4  A4D8               	btfss	status,2,c
  2860  0008F6  EF7F  F004         	goto	i2u396_41
  2861  0008FA  EF81  F004         	goto	i2u396_40
  2862  0008FE                     i2u396_41:
  2863  0008FE  EFD8  F004         	goto	i2l3510
  2864  000902                     i2u396_40:
  2865  000902  0EBF               	movlw	191
  2866  000904  6E3B               	movwf	??_efgtoa^0,c
  2867  000906  0EFF               	movlw	255
  2868  000908  6E3C               	movwf	(??_efgtoa+1)^0,c
  2869  00090A  503A               	movf	efgtoa@c^0,w,c
  2870  00090C  6E3D               	movwf	(??_efgtoa+2)^0,c
  2871  00090E  6A3E               	clrf	(??_efgtoa+3)^0,c
  2872  000910  503B               	movf	??_efgtoa^0,w,c
  2873  000912  263D               	addwf	(??_efgtoa+2)^0,f,c
  2874  000914  503C               	movf	(??_efgtoa+1)^0,w,c
  2875  000916  223E               	addwfc	(??_efgtoa+3)^0,f,c
  2876  000918  503E               	movf	(??_efgtoa+3)^0,w,c
  2877  00091A  E10A               	bnz	i2u397_40
  2878  00091C  0E1A               	movlw	26
  2879  00091E  5C3D               	subwf	(??_efgtoa+2)^0,w,c
  2880  000920  A0D8               	btfss	status,0,c
  2881  000922  EF95  F004         	goto	i2u397_41
  2882  000926  EF98  F004         	goto	i2u397_40
  2883  00092A                     i2u397_41:
  2884  00092A  0E01               	movlw	1
  2885  00092C  EF99  F004         	goto	i2u398_40
  2886  000930                     i2u397_40:
  2887  000930  0E00               	movlw	0
  2888  000932                     i2u398_40:
  2889  000932  0100               	movlb	0	; () banked
  2890  000934  6F66               	movwf	_efgtoa$1322& (0+255),b
  2891  000936  6B67               	clrf	(_efgtoa$1322+1)& (0+255),b
  2892  000938                     
  2893                           ; BSR set to: 0
  2894  000938  5166               	movf	_efgtoa$1322& (0+255),w,b
  2895  00093A  1167               	iorwf	(_efgtoa$1322+1)& (0+255),w,b
  2896  00093C  B4D8               	btfsc	status,2,c
  2897  00093E  EFA3  F004         	goto	i2u399_41
  2898  000942  EFA5  F004         	goto	i2u399_40
  2899  000946                     i2u399_41:
  2900  000946  EFB3  F004         	goto	i2l3502
  2901  00094A                     i2u399_40:
  2902  00094A                     
  2903                           ; BSR set to: 0
  2904                           ;C:\Program Files\Microchip\xc8\v2.20\pic\sources\c99\common\doprnt.c: 345:             
      +                          strcpy(&dbuf[n], "INF");
  2905  00094A  0E00               	movlw	low _dbuf
  2906  00094C  2592               	addwf	efgtoa@n& (0+255),w,b
  2907  00094E  6E01               	movwf	strcpy@dest^0,c
  2908  000950  0E01               	movlw	high _dbuf
  2909  000952  2193               	addwfc	(efgtoa@n+1)& (0+255),w,b
  2910  000954  6E02               	movwf	(strcpy@dest+1)^0,c
  2911  000956  0E0D               	movlw	low STR_2
  2912  000958  6E03               	movwf	strcpy@src^0,c
  2913  00095A  0E08               	movlw	high STR_2
  2914  00095C  6E04               	movwf	(strcpy@src+1)^0,c
  2915  00095E  ECBA  F01A         	call	_strcpy	;wreg free
  2916                           
  2917                           ;C:\Program Files\Microchip\xc8\v2.20\pic\sources\c99\common\doprnt.c: 346:         } el
      +                          se {
  2918  000962  EFBF  F004         	goto	i2l3504
  2919  000966                     i2l3502:
  2920                           
  2921                           ; BSR set to: 0
  2922                           ;C:\Program Files\Microchip\xc8\v2.20\pic\sources\c99\common\doprnt.c: 347:             
      +                          strcpy(&dbuf[n], "inf");
  2923  000966  0E00               	movlw	low _dbuf
  2924  000968  2592               	addwf	efgtoa@n& (0+255),w,b
  2925  00096A  6E01               	movwf	strcpy@dest^0,c
  2926  00096C  0E01               	movlw	high _dbuf
  2927  00096E  2193               	addwfc	(efgtoa@n+1)& (0+255),w,b
  2928  000970  6E02               	movwf	(strcpy@dest+1)^0,c
  2929  000972  0E15               	movlw	low STR_3
  2930  000974  6E03               	movwf	strcpy@src^0,c
  2931  000976  0E08               	movlw	high STR_3
  2932  000978  6E04               	movwf	(strcpy@src+1)^0,c
  2933  00097A  ECBA  F01A         	call	_strcpy	;wreg free
  2934  00097E                     i2l3504:
  2935                           
  2936                           ;C:\Program Files\Microchip\xc8\v2.20\pic\sources\c99\common\doprnt.c: 349:         w -=
      +                           ((sizeof("inf")/sizeof("inf"[0]))-1);
  2937  00097E  0100               	movlb	0	; () banked
  2938  000980  0EFD               	movlw	253
  2939  000982  277F               	addwf	efgtoa@w& (0+255),f,b
  2940  000984  0EFF               	movlw	255
  2941  000986  2380               	addwfc	(efgtoa@w+1)& (0+255),f,b
  2942  000988                     i2l3506:
  2943                           
  2944                           ;C:\Program Files\Microchip\xc8\v2.20\pic\sources\c99\common\doprnt.c: 350:         retu
      +                          rn pad(fp, &dbuf[0], w);
  2945  000988  C034  F011         	movff	efgtoa@fp,pad@fp
  2946  00098C  C035  F012         	movff	efgtoa@fp+1,pad@fp+1
  2947  000990  0E00               	movlw	low _dbuf
  2948  000992  6E13               	movwf	pad@buf^0,c
  2949  000994  0E01               	movlw	high _dbuf
  2950  000996  6E14               	movwf	(pad@buf+1)^0,c
  2951  000998  C07F  F015         	movff	efgtoa@w,pad@p
  2952  00099C  C080  F016         	movff	efgtoa@w+1,pad@p+1
  2953  0009A0  EC41  F018         	call	_pad	;wreg free
  2954  0009A4  C011  F034         	movff	?_pad,?_efgtoa
  2955  0009A8  C012  F035         	movff	?_pad+1,?_efgtoa+1
  2956  0009AC  EFE8  F009         	goto	i2l872
  2957  0009B0                     i2l3510:
  2958                           
  2959                           ;C:\Program Files\Microchip\xc8\v2.20\pic\sources\c99\common\doprnt.c: 353:         if (
      +                          (0 ? isupper((int)c) : ((unsigned)((int)c)-'A') < 26)) {
  2960  0009B0  C08C  F001         	movff	efgtoa@g,___fpclassifyf@x
  2961  0009B4  C08D  F002         	movff	efgtoa@g+1,___fpclassifyf@x+1
  2962  0009B8  C08E  F003         	movff	efgtoa@g+2,___fpclassifyf@x+2
  2963  0009BC  C08F  F004         	movff	efgtoa@g+3,___fpclassifyf@x+3
  2964  0009C0  ECF2  F016         	call	___fpclassifyf	;wreg free
  2965  0009C4  5001               	movf	?___fpclassifyf^0,w,c
  2966  0009C6  1002               	iorwf	(?___fpclassifyf+1)^0,w,c
  2967  0009C8  A4D8               	btfss	status,2,c
  2968  0009CA  EFE9  F004         	goto	i2u400_41
  2969  0009CE  EFEB  F004         	goto	i2u400_40
  2970  0009D2                     i2u400_41:
  2971  0009D2  EF2B  F005         	goto	i2l3528
  2972  0009D6                     i2u400_40:
  2973  0009D6  0EBF               	movlw	191
  2974  0009D8  6E3B               	movwf	??_efgtoa^0,c
  2975  0009DA  0EFF               	movlw	255
  2976  0009DC  6E3C               	movwf	(??_efgtoa+1)^0,c
  2977  0009DE  503A               	movf	efgtoa@c^0,w,c
  2978  0009E0  6E3D               	movwf	(??_efgtoa+2)^0,c
  2979  0009E2  6A3E               	clrf	(??_efgtoa+3)^0,c
  2980  0009E4  503B               	movf	??_efgtoa^0,w,c
  2981  0009E6  263D               	addwf	(??_efgtoa+2)^0,f,c
  2982  0009E8  503C               	movf	(??_efgtoa+1)^0,w,c
  2983  0009EA  223E               	addwfc	(??_efgtoa+3)^0,f,c
  2984  0009EC  503E               	movf	(??_efgtoa+3)^0,w,c
  2985  0009EE  E10A               	bnz	i2u401_40
  2986  0009F0  0E1A               	movlw	26
  2987  0009F2  5C3D               	subwf	(??_efgtoa+2)^0,w,c
  2988  0009F4  A0D8               	btfss	status,0,c
  2989  0009F6  EFFF  F004         	goto	i2u401_41
  2990  0009FA  EF02  F005         	goto	i2u401_40
  2991  0009FE                     i2u401_41:
  2992  0009FE  0E01               	movlw	1
  2993  000A00  EF03  F005         	goto	i2u402_40
  2994  000A04                     i2u401_40:
  2995  000A04  0E00               	movlw	0
  2996  000A06                     i2u402_40:
  2997  000A06  0100               	movlb	0	; () banked
  2998  000A08  6F68               	movwf	_efgtoa$1327& (0+255),b
  2999  000A0A  6B69               	clrf	(_efgtoa$1327+1)& (0+255),b
  3000  000A0C                     
  3001                           ; BSR set to: 0
  3002  000A0C  5168               	movf	_efgtoa$1327& (0+255),w,b
  3003  000A0E  1169               	iorwf	(_efgtoa$1327+1)& (0+255),w,b
  3004  000A10  B4D8               	btfsc	status,2,c
  3005  000A12  EF0D  F005         	goto	i2u403_41
  3006  000A16  EF0F  F005         	goto	i2u403_40
  3007  000A1A                     i2u403_41:
  3008  000A1A  EF1D  F005         	goto	i2l3520
  3009  000A1E                     i2u403_40:
  3010  000A1E                     
  3011                           ; BSR set to: 0
  3012                           ;C:\Program Files\Microchip\xc8\v2.20\pic\sources\c99\common\doprnt.c: 354:             
      +                          strcpy(&dbuf[n], "NAN");
  3013  000A1E  0E00               	movlw	low _dbuf
  3014  000A20  2592               	addwf	efgtoa@n& (0+255),w,b
  3015  000A22  6E01               	movwf	strcpy@dest^0,c
  3016  000A24  0E01               	movlw	high _dbuf
  3017  000A26  2193               	addwfc	(efgtoa@n+1)& (0+255),w,b
  3018  000A28  6E02               	movwf	(strcpy@dest+1)^0,c
  3019  000A2A  0E11               	movlw	low STR_6
  3020  000A2C  6E03               	movwf	strcpy@src^0,c
  3021  000A2E  0E08               	movlw	high STR_6
  3022  000A30  6E04               	movwf	(strcpy@src+1)^0,c
  3023  000A32  ECBA  F01A         	call	_strcpy	;wreg free
  3024                           
  3025                           ;C:\Program Files\Microchip\xc8\v2.20\pic\sources\c99\common\doprnt.c: 355:         } el
      +                          se {
  3026  000A36  EFBF  F004         	goto	i2l3504
  3027  000A3A                     i2l3520:
  3028                           
  3029                           ; BSR set to: 0
  3030                           ;C:\Program Files\Microchip\xc8\v2.20\pic\sources\c99\common\doprnt.c: 356:             
      +                          strcpy(&dbuf[n], "nan");
  3031  000A3A  0E00               	movlw	low _dbuf
  3032  000A3C  2592               	addwf	efgtoa@n& (0+255),w,b
  3033  000A3E  6E01               	movwf	strcpy@dest^0,c
  3034  000A40  0E01               	movlw	high _dbuf
  3035  000A42  2193               	addwfc	(efgtoa@n+1)& (0+255),w,b
  3036  000A44  6E02               	movwf	(strcpy@dest+1)^0,c
  3037  000A46  0E19               	movlw	low STR_7
  3038  000A48  6E03               	movwf	strcpy@src^0,c
  3039  000A4A  0E08               	movlw	high STR_7
  3040  000A4C  6E04               	movwf	(strcpy@src+1)^0,c
  3041  000A4E  ECBA  F01A         	call	_strcpy	;wreg free
  3042  000A52  EFBF  F004         	goto	i2l3504
  3043  000A56                     i2l3528:
  3044                           
  3045                           ;C:\Program Files\Microchip\xc8\v2.20\pic\sources\c99\common\doprnt.c: 363:     u = 1.0;
  3046  000A56  0E00               	movlw	0
  3047  000A58  0100               	movlb	0	; () banked
  3048  000A5A  6F94               	movwf	efgtoa@u& (0+255),b
  3049  000A5C  0E00               	movlw	0
  3050  000A5E  6F95               	movwf	(efgtoa@u+1)& (0+255),b
  3051  000A60  0E80               	movlw	128
  3052  000A62  6F96               	movwf	(efgtoa@u+2)& (0+255),b
  3053  000A64  0E3F               	movlw	63
  3054  000A66  6F97               	movwf	(efgtoa@u+3)& (0+255),b
  3055                           
  3056                           ;C:\Program Files\Microchip\xc8\v2.20\pic\sources\c99\common\doprnt.c: 364:     e = 0;
  3057  000A68  0E00               	movlw	0
  3058  000A6A  6F91               	movwf	(efgtoa@e+1)& (0+255),b
  3059  000A6C  0E00               	movlw	0
  3060  000A6E  6F90               	movwf	efgtoa@e& (0+255),b
  3061  000A70                     
  3062                           ; BSR set to: 0
  3063                           ;C:\Program Files\Microchip\xc8\v2.20\pic\sources\c99\common\doprnt.c: 365:     if (!(g 
      +                          == 0.0)) {
  3064  000A70  C08C  F001         	movff	efgtoa@g,___fleq@ff1
  3065  000A74  C08D  F002         	movff	efgtoa@g+1,___fleq@ff1+1
  3066  000A78  C08E  F003         	movff	efgtoa@g+2,___fleq@ff1+2
  3067  000A7C  C08F  F004         	movff	efgtoa@g+3,___fleq@ff1+3
  3068  000A80  0E00               	movlw	0
  3069  000A82  6E05               	movwf	___fleq@ff2^0,c
  3070  000A84  0E00               	movlw	0
  3071  000A86  6E06               	movwf	(___fleq@ff2+1)^0,c
  3072  000A88  0E00               	movlw	0
  3073  000A8A  6E07               	movwf	(___fleq@ff2+2)^0,c
  3074  000A8C  0E00               	movlw	0
  3075  000A8E  6E08               	movwf	(___fleq@ff2+3)^0,c
  3076  000A90  EC5E  F019         	call	___fleq	;wreg free
  3077  000A94  B0D8               	btfsc	status,0,c
  3078  000A96  EF4F  F005         	goto	i2u404_41
  3079  000A9A  EF51  F005         	goto	i2u404_40
  3080  000A9E                     i2u404_41:
  3081  000A9E  EFD4  F005         	goto	i2l3546
  3082  000AA2                     i2u404_40:
  3083  000AA2  EF70  F005         	goto	i2l3538
  3084  000AA6                     i2l3534:
  3085                           
  3086                           ;C:\Program Files\Microchip\xc8\v2.20\pic\sources\c99\common\doprnt.c: 367:             
      +                          u = u*10.0;
  3087  000AA6  C094  F00F         	movff	efgtoa@u,___flmul@b
  3088  000AAA  C095  F010         	movff	efgtoa@u+1,___flmul@b+1
  3089  000AAE  C096  F011         	movff	efgtoa@u+2,___flmul@b+2
  3090  000AB2  C097  F012         	movff	efgtoa@u+3,___flmul@b+3
  3091  000AB6  0E00               	movlw	0
  3092  000AB8  6E13               	movwf	___flmul@a^0,c
  3093  000ABA  0E00               	movlw	0
  3094  000ABC  6E14               	movwf	(___flmul@a+1)^0,c
  3095  000ABE  0E20               	movlw	32
  3096  000AC0  6E15               	movwf	(___flmul@a+2)^0,c
  3097  000AC2  0E41               	movlw	65
  3098  000AC4  6E16               	movwf	(___flmul@a+3)^0,c
  3099  000AC6  ECDC  F00E         	call	___flmul	;wreg free
  3100  000ACA  C00F  F094         	movff	?___flmul,efgtoa@u
  3101  000ACE  C010  F095         	movff	?___flmul+1,efgtoa@u+1
  3102  000AD2  C011  F096         	movff	?___flmul+2,efgtoa@u+2
  3103  000AD6  C012  F097         	movff	?___flmul+3,efgtoa@u+3
  3104  000ADA                     
  3105                           ;C:\Program Files\Microchip\xc8\v2.20\pic\sources\c99\common\doprnt.c: 368:             
      +                          ++e;
  3106  000ADA  0100               	movlb	0	; () banked
  3107  000ADC  4B90               	infsnz	efgtoa@e& (0+255),f,b
  3108  000ADE  2B91               	incf	(efgtoa@e+1)& (0+255),f,b
  3109  000AE0                     i2l3538:
  3110                           
  3111                           ;C:\Program Files\Microchip\xc8\v2.20\pic\sources\c99\common\doprnt.c: 366:         whil
      +                          e (!(g < (u*10.0))) {
  3112  000AE0  C08C  F028         	movff	efgtoa@g,___flge@ff1
  3113  000AE4  C08D  F029         	movff	efgtoa@g+1,___flge@ff1+1
  3114  000AE8  C08E  F02A         	movff	efgtoa@g+2,___flge@ff1+2
  3115  000AEC  C08F  F02B         	movff	efgtoa@g+3,___flge@ff1+3
  3116  000AF0  0E00               	movlw	0
  3117  000AF2  6E13               	movwf	___flmul@a^0,c
  3118  000AF4  0E00               	movlw	0
  3119  000AF6  6E14               	movwf	(___flmul@a+1)^0,c
  3120  000AF8  0E20               	movlw	32
  3121  000AFA  6E15               	movwf	(___flmul@a+2)^0,c
  3122  000AFC  0E41               	movlw	65
  3123  000AFE  6E16               	movwf	(___flmul@a+3)^0,c
  3124  000B00  C094  F00F         	movff	efgtoa@u,___flmul@b
  3125  000B04  C095  F010         	movff	efgtoa@u+1,___flmul@b+1
  3126  000B08  C096  F011         	movff	efgtoa@u+2,___flmul@b+2
  3127  000B0C  C097  F012         	movff	efgtoa@u+3,___flmul@b+3
  3128  000B10  ECDC  F00E         	call	___flmul	;wreg free
  3129  000B14  C00F  F02C         	movff	?___flmul,___flge@ff2
  3130  000B18  C010  F02D         	movff	?___flmul+1,___flge@ff2+1
  3131  000B1C  C011  F02E         	movff	?___flmul+2,___flge@ff2+2
  3132  000B20  C012  F02F         	movff	?___flmul+3,___flge@ff2+3
  3133  000B24  EC70  F016         	call	___flge	;wreg free
  3134  000B28  B0D8               	btfsc	status,0,c
  3135  000B2A  EF99  F005         	goto	i2u405_41
  3136  000B2E  EF9B  F005         	goto	i2u405_40
  3137  000B32                     i2u405_41:
  3138  000B32  EF53  F005         	goto	i2l3534
  3139  000B36                     i2u405_40:
  3140  000B36  EFBB  F005         	goto	i2l3544
  3141  000B3A                     i2l3540:
  3142                           
  3143                           ;C:\Program Files\Microchip\xc8\v2.20\pic\sources\c99\common\doprnt.c: 371:             
      +                          u = u/10.0;
  3144  000B3A  C094  F001         	movff	efgtoa@u,___fldiv@b
  3145  000B3E  C095  F002         	movff	efgtoa@u+1,___fldiv@b+1
  3146  000B42  C096  F003         	movff	efgtoa@u+2,___fldiv@b+2
  3147  000B46  C097  F004         	movff	efgtoa@u+3,___fldiv@b+3
  3148  000B4A  0E00               	movlw	0
  3149  000B4C  6E05               	movwf	___fldiv@a^0,c
  3150  000B4E  0E00               	movlw	0
  3151  000B50  6E06               	movwf	(___fldiv@a+1)^0,c
  3152  000B52  0E20               	movlw	32
  3153  000B54  6E07               	movwf	(___fldiv@a+2)^0,c
  3154  000B56  0E41               	movlw	65
  3155  000B58  6E08               	movwf	(___fldiv@a+3)^0,c
  3156  000B5A  ECF1  F010         	call	___fldiv	;wreg free
  3157  000B5E  C001  F094         	movff	?___fldiv,efgtoa@u
  3158  000B62  C002  F095         	movff	?___fldiv+1,efgtoa@u+1
  3159  000B66  C003  F096         	movff	?___fldiv+2,efgtoa@u+2
  3160  000B6A  C004  F097         	movff	?___fldiv+3,efgtoa@u+3
  3161  000B6E                     
  3162                           ;C:\Program Files\Microchip\xc8\v2.20\pic\sources\c99\common\doprnt.c: 372:             
      +                          --e;
  3163  000B6E  0100               	movlb	0	; () banked
  3164  000B70  0790               	decf	efgtoa@e& (0+255),f,b
  3165  000B72  A0D8               	btfss	status,0,c
  3166  000B74  0791               	decf	(efgtoa@e+1)& (0+255),f,b
  3167  000B76                     i2l3544:
  3168                           
  3169                           ;C:\Program Files\Microchip\xc8\v2.20\pic\sources\c99\common\doprnt.c: 370:         whil
      +                          e (g < u) {
  3170  000B76  C08C  F028         	movff	efgtoa@g,___flge@ff1
  3171  000B7A  C08D  F029         	movff	efgtoa@g+1,___flge@ff1+1
  3172  000B7E  C08E  F02A         	movff	efgtoa@g+2,___flge@ff1+2
  3173  000B82  C08F  F02B         	movff	efgtoa@g+3,___flge@ff1+3
  3174  000B86  C094  F02C         	movff	efgtoa@u,___flge@ff2
  3175  000B8A  C095  F02D         	movff	efgtoa@u+1,___flge@ff2+1
  3176  000B8E  C096  F02E         	movff	efgtoa@u+2,___flge@ff2+2
  3177  000B92  C097  F02F         	movff	efgtoa@u+3,___flge@ff2+3
  3178  000B96  EC70  F016         	call	___flge	;wreg free
  3179  000B9A  A0D8               	btfss	status,0,c
  3180  000B9C  EFD2  F005         	goto	i2u406_41
  3181  000BA0  EFD4  F005         	goto	i2u406_40
  3182  000BA4                     i2u406_41:
  3183  000BA4  EF9D  F005         	goto	i2l3540
  3184  000BA8                     i2u406_40:
  3185  000BA8                     i2l3546:
  3186                           
  3187                           ;C:\Program Files\Microchip\xc8\v2.20\pic\sources\c99\common\doprnt.c: 377:     mode = t
      +                          olower((int)c);
  3188  000BA8  C03A  F007         	movff	efgtoa@c,tolower@c
  3189  000BAC  6A08               	clrf	(tolower@c+1)^0,c
  3190  000BAE  EC8A  F01A         	call	_tolower	;wreg free
  3191  000BB2  5007               	movf	?_tolower^0,w,c
  3192  000BB4  0100               	movlb	0	; () banked
  3193  000BB6  6F81               	movwf	efgtoa@mode& (0+255),b
  3194  000BB8                     
  3195                           ; BSR set to: 0
  3196                           ;C:\Program Files\Microchip\xc8\v2.20\pic\sources\c99\common\doprnt.c: 378:     nmode = 
      +                          mode;
  3197  000BB8  C081  F07E         	movff	efgtoa@mode,efgtoa@nmode
  3198  000BBC                     
  3199                           ; BSR set to: 0
  3200                           ;C:\Program Files\Microchip\xc8\v2.20\pic\sources\c99\common\doprnt.c: 379:     if (mode
      +                           == 'g') {
  3201  000BBC  0E67               	movlw	103
  3202  000BBE  1981               	xorwf	efgtoa@mode& (0+255),w,b
  3203  000BC0  A4D8               	btfss	status,2,c
  3204  000BC2  EFE5  F005         	goto	i2u407_41
  3205  000BC6  EFE7  F005         	goto	i2u407_40
  3206  000BCA                     i2u407_41:
  3207  000BCA  EF0D  F006         	goto	i2l3560
  3208  000BCE                     i2u407_40:
  3209  000BCE                     
  3210                           ; BSR set to: 0
  3211                           ;C:\Program Files\Microchip\xc8\v2.20\pic\sources\c99\common\doprnt.c: 380:   if (prec =
      +                          = 0) {
  3212  000BCE  51C8               	movf	_prec& (0+255),w,b
  3213  000BD0  11C9               	iorwf	(_prec+1)& (0+255),w,b
  3214  000BD2  A4D8               	btfss	status,2,c
  3215  000BD4  EFEE  F005         	goto	i2u408_41
  3216  000BD8  EFF0  F005         	goto	i2u408_40
  3217  000BDC                     i2u408_41:
  3218  000BDC  EFF4  F005         	goto	i2l3556
  3219  000BE0                     i2u408_40:
  3220  000BE0                     
  3221                           ; BSR set to: 0
  3222                           ;C:\Program Files\Microchip\xc8\v2.20\pic\sources\c99\common\doprnt.c: 381:    prec = 1;
  3223  000BE0  0E00               	movlw	0
  3224  000BE2  6FC9               	movwf	(_prec+1)& (0+255),b
  3225  000BE4  0E01               	movlw	1
  3226  000BE6  6FC8               	movwf	_prec& (0+255),b
  3227  000BE8                     i2l3556:
  3228                           
  3229                           ; BSR set to: 0
  3230                           ;C:\Program Files\Microchip\xc8\v2.20\pic\sources\c99\common\doprnt.c: 383:         p = 
      +                          (0 < prec) ? prec : 6;
  3231  000BE8  BFC9               	btfsc	(_prec+1)& (0+255),7,b
  3232  000BEA  EF01  F006         	goto	i2u409_40
  3233  000BEE  51C9               	movf	(_prec+1)& (0+255),w,b
  3234  000BF0  E106               	bnz	i2u409_41
  3235  000BF2  05C8               	decf	_prec& (0+255),w,b
  3236  000BF4  B0D8               	btfsc	status,0,c
  3237  000BF6  EFFF  F005         	goto	i2u409_41
  3238  000BFA  EF01  F006         	goto	i2u409_40
  3239  000BFE                     i2u409_41:
  3240  000BFE  EF07  F006         	goto	i2l890
  3241  000C02                     i2u409_40:
  3242  000C02                     i2l3558:
  3243                           
  3244                           ; BSR set to: 0
  3245  000C02  0E00               	movlw	0
  3246  000C04  6F7D               	movwf	(efgtoa@p+1)& (0+255),b
  3247  000C06  0E06               	movlw	6
  3248  000C08  6F7C               	movwf	efgtoa@p& (0+255),b
  3249  000C0A  EF16  F006         	goto	i2l3566
  3250  000C0E                     i2l890:
  3251                           
  3252                           ; BSR set to: 0
  3253  000C0E  C0C8  F07C         	movff	_prec,efgtoa@p
  3254  000C12  C0C9  F07D         	movff	_prec+1,efgtoa@p+1
  3255  000C16  EF16  F006         	goto	i2l3566
  3256  000C1A                     i2l3560:
  3257                           
  3258                           ; BSR set to: 0
  3259                           ;C:\Program Files\Microchip\xc8\v2.20\pic\sources\c99\common\doprnt.c: 385:         p = 
      +                          (prec < 0) ? 6 : prec;
  3260  000C1A  BFC9               	btfsc	(_prec+1)& (0+255),7,b
  3261  000C1C  EF12  F006         	goto	i2u410_41
  3262  000C20  EF14  F006         	goto	i2u410_40
  3263  000C24                     i2u410_41:
  3264  000C24  EF01  F006         	goto	i2l3558
  3265  000C28                     i2u410_40:
  3266  000C28  EF07  F006         	goto	i2l890
  3267  000C2C                     i2l3566:
  3268                           
  3269                           ; BSR set to: 0
  3270                           ;C:\Program Files\Microchip\xc8\v2.20\pic\sources\c99\common\doprnt.c: 389:     if (mode
      +                           == 'g') {
  3271  000C2C  0E67               	movlw	103
  3272  000C2E  1981               	xorwf	efgtoa@mode& (0+255),w,b
  3273  000C30  A4D8               	btfss	status,2,c
  3274  000C32  EF1D  F006         	goto	i2u411_41
  3275  000C36  EF1F  F006         	goto	i2u411_40
  3276  000C3A                     i2u411_41:
  3277  000C3A  EF4E  F006         	goto	i2l3576
  3278  000C3E                     i2u411_40:
  3279  000C3E                     
  3280                           ; BSR set to: 0
  3281                           ;C:\Program Files\Microchip\xc8\v2.20\pic\sources\c99\common\doprnt.c: 390:         if (
      +                          !(e < -4) && !((p - 1) < e)) {
  3282  000C3E  AF91               	btfss	(efgtoa@e+1)& (0+255),7,b
  3283  000C40  EF2D  F006         	goto	i2u412_40
  3284  000C44  0EFC               	movlw	252
  3285  000C46  5D90               	subwf	efgtoa@e& (0+255),w,b
  3286  000C48  0EFF               	movlw	255
  3287  000C4A  5991               	subwfb	(efgtoa@e+1)& (0+255),w,b
  3288  000C4C  A0D8               	btfss	status,0,c
  3289  000C4E  EF2B  F006         	goto	i2u412_41
  3290  000C52  EF2D  F006         	goto	i2u412_40
  3291  000C56                     i2u412_41:
  3292  000C56  EF4C  F006         	goto	i2l3574
  3293  000C5A                     i2u412_40:
  3294  000C5A                     
  3295                           ; BSR set to: 0
  3296  000C5A  0EFF               	movlw	255
  3297  000C5C  6E3B               	movwf	??_efgtoa^0,c
  3298  000C5E  0EFF               	movlw	255
  3299  000C60  6E3C               	movwf	(??_efgtoa+1)^0,c
  3300  000C62  C07C  F03D         	movff	efgtoa@p,??_efgtoa+2
  3301  000C66  C07D  F03E         	movff	efgtoa@p+1,??_efgtoa+3
  3302  000C6A  503B               	movf	??_efgtoa^0,w,c
  3303  000C6C  263D               	addwf	(??_efgtoa+2)^0,f,c
  3304  000C6E  503C               	movf	(??_efgtoa+1)^0,w,c
  3305  000C70  223E               	addwfc	(??_efgtoa+3)^0,f,c
  3306  000C72  5190               	movf	efgtoa@e& (0+255),w,b
  3307  000C74  5C3D               	subwf	(??_efgtoa+2)^0,w,c
  3308  000C76  503E               	movf	(??_efgtoa+3)^0,w,c
  3309  000C78  0A80               	xorlw	128
  3310  000C7A  6E3F               	movwf	(??_efgtoa+4)^0,c
  3311  000C7C  5191               	movf	(efgtoa@e+1)& (0+255),w,b
  3312  000C7E  0A80               	xorlw	128
  3313  000C80  583F               	subwfb	(??_efgtoa+4)^0,w,c
  3314  000C82  A0D8               	btfss	status,0,c
  3315  000C84  EF46  F006         	goto	i2u413_41
  3316  000C88  EF48  F006         	goto	i2u413_40
  3317  000C8C                     i2u413_41:
  3318  000C8C  EF4C  F006         	goto	i2l3574
  3319  000C90                     i2u413_40:
  3320  000C90                     
  3321                           ; BSR set to: 0
  3322                           ;C:\Program Files\Microchip\xc8\v2.20\pic\sources\c99\common\doprnt.c: 391:             
      +                          nmode = 'f';
  3323  000C90  0E66               	movlw	102
  3324  000C92  6F7E               	movwf	efgtoa@nmode& (0+255),b
  3325                           
  3326                           ;C:\Program Files\Microchip\xc8\v2.20\pic\sources\c99\common\doprnt.c: 392:         } el
      +                          se {
  3327  000C94  EF4E  F006         	goto	i2l3576
  3328  000C98                     i2l3574:
  3329                           
  3330                           ; BSR set to: 0
  3331                           ;C:\Program Files\Microchip\xc8\v2.20\pic\sources\c99\common\doprnt.c: 393:             
      +                          nmode = 'e';
  3332  000C98  0E65               	movlw	101
  3333  000C9A  6F7E               	movwf	efgtoa@nmode& (0+255),b
  3334  000C9C                     i2l3576:
  3335                           
  3336                           ; BSR set to: 0
  3337                           ;C:\Program Files\Microchip\xc8\v2.20\pic\sources\c99\common\doprnt.c: 398:     m = p;
  3338  000C9C  C07C  F074         	movff	efgtoa@p,efgtoa@m
  3339  000CA0  C07D  F075         	movff	efgtoa@p+1,efgtoa@m+1
  3340  000CA4                     
  3341                           ; BSR set to: 0
  3342                           ;C:\Program Files\Microchip\xc8\v2.20\pic\sources\c99\common\doprnt.c: 399:     if (!(mo
      +                          de == 'g') || ((nmode == 'f') && (e < 0))) {
  3343  000CA4  0E67               	movlw	103
  3344  000CA6  1981               	xorwf	efgtoa@mode& (0+255),w,b
  3345  000CA8  A4D8               	btfss	status,2,c
  3346  000CAA  EF59  F006         	goto	i2u414_41
  3347  000CAE  EF5B  F006         	goto	i2u414_40
  3348  000CB2                     i2u414_41:
  3349  000CB2  EF6B  F006         	goto	i2l3584
  3350  000CB6                     i2u414_40:
  3351  000CB6                     
  3352                           ; BSR set to: 0
  3353  000CB6  0E66               	movlw	102
  3354  000CB8  197E               	xorwf	efgtoa@nmode& (0+255),w,b
  3355  000CBA  A4D8               	btfss	status,2,c
  3356  000CBC  EF62  F006         	goto	i2u415_41
  3357  000CC0  EF64  F006         	goto	i2u415_40
  3358  000CC4                     i2u415_41:
  3359  000CC4  EF6D  F006         	goto	i2l3586
  3360  000CC8                     i2u415_40:
  3361  000CC8                     
  3362                           ; BSR set to: 0
  3363  000CC8  BF91               	btfsc	(efgtoa@e+1)& (0+255),7,b
  3364  000CCA  EF6B  F006         	goto	i2u416_40
  3365  000CCE  EF69  F006         	goto	i2u416_41
  3366  000CD2                     i2u416_41:
  3367  000CD2  EF6D  F006         	goto	i2l3586
  3368  000CD6                     i2u416_40:
  3369  000CD6                     i2l3584:
  3370                           
  3371                           ; BSR set to: 0
  3372                           ;C:\Program Files\Microchip\xc8\v2.20\pic\sources\c99\common\doprnt.c: 400:         ++m;
  3373  000CD6  4B74               	infsnz	efgtoa@m& (0+255),f,b
  3374  000CD8  2B75               	incf	(efgtoa@m+1)& (0+255),f,b
  3375  000CDA                     i2l3586:
  3376                           
  3377                           ; BSR set to: 0
  3378                           ;C:\Program Files\Microchip\xc8\v2.20\pic\sources\c99\common\doprnt.c: 404:     if (nmod
      +                          e == 'f') {
  3379  000CDA  0E66               	movlw	102
  3380  000CDC  197E               	xorwf	efgtoa@nmode& (0+255),w,b
  3381  000CDE  A4D8               	btfss	status,2,c
  3382  000CE0  EF74  F006         	goto	i2u417_41
  3383  000CE4  EF76  F006         	goto	i2u417_40
  3384  000CE8                     i2u417_41:
  3385  000CE8  EF96  F006         	goto	i2l3596
  3386  000CEC                     i2u417_40:
  3387  000CEC                     
  3388                           ; BSR set to: 0
  3389                           ;C:\Program Files\Microchip\xc8\v2.20\pic\sources\c99\common\doprnt.c: 405:         if (
      +                          e < 0) {
  3390  000CEC  BF91               	btfsc	(efgtoa@e+1)& (0+255),7,b
  3391  000CEE  EF7D  F006         	goto	i2u418_40
  3392  000CF2  EF7B  F006         	goto	i2u418_41
  3393  000CF6                     i2u418_41:
  3394  000CF6  EF89  F006         	goto	i2l3592
  3395  000CFA                     i2u418_40:
  3396  000CFA                     
  3397                           ; BSR set to: 0
  3398                           ;C:\Program Files\Microchip\xc8\v2.20\pic\sources\c99\common\doprnt.c: 406:             
      +                          u = 1.0;
  3399  000CFA  0E00               	movlw	0
  3400  000CFC  6F94               	movwf	efgtoa@u& (0+255),b
  3401  000CFE  0E00               	movlw	0
  3402  000D00  6F95               	movwf	(efgtoa@u+1)& (0+255),b
  3403  000D02  0E80               	movlw	128
  3404  000D04  6F96               	movwf	(efgtoa@u+2)& (0+255),b
  3405  000D06  0E3F               	movlw	63
  3406  000D08  6F97               	movwf	(efgtoa@u+3)& (0+255),b
  3407                           
  3408                           ;C:\Program Files\Microchip\xc8\v2.20\pic\sources\c99\common\doprnt.c: 407:             
      +                          e = 0;
  3409  000D0A  0E00               	movlw	0
  3410  000D0C  6F91               	movwf	(efgtoa@e+1)& (0+255),b
  3411  000D0E  0E00               	movlw	0
  3412  000D10  6F90               	movwf	efgtoa@e& (0+255),b
  3413  000D12                     i2l3592:
  3414                           
  3415                           ; BSR set to: 0
  3416                           ;C:\Program Files\Microchip\xc8\v2.20\pic\sources\c99\common\doprnt.c: 409:         if (
      +                          !(mode == 'g')) {
  3417  000D12  0E67               	movlw	103
  3418  000D14  1981               	xorwf	efgtoa@mode& (0+255),w,b
  3419  000D16  B4D8               	btfsc	status,2,c
  3420  000D18  EF90  F006         	goto	i2u419_41
  3421  000D1C  EF92  F006         	goto	i2u419_40
  3422  000D20                     i2u419_41:
  3423  000D20  EF96  F006         	goto	i2l3596
  3424  000D24                     i2u419_40:
  3425  000D24                     
  3426                           ; BSR set to: 0
  3427                           ;C:\Program Files\Microchip\xc8\v2.20\pic\sources\c99\common\doprnt.c: 410:             
      +                          m += e;
  3428  000D24  5190               	movf	efgtoa@e& (0+255),w,b
  3429  000D26  2774               	addwf	efgtoa@m& (0+255),f,b
  3430  000D28  5191               	movf	(efgtoa@e+1)& (0+255),w,b
  3431  000D2A  2375               	addwfc	(efgtoa@m+1)& (0+255),f,b
  3432  000D2C                     i2l3596:
  3433                           
  3434                           ; BSR set to: 0
  3435                           ;C:\Program Files\Microchip\xc8\v2.20\pic\sources\c99\common\doprnt.c: 415:     i = 0;
  3436  000D2C  0E00               	movlw	0
  3437  000D2E  6F8B               	movwf	(efgtoa@i+1)& (0+255),b
  3438  000D30  0E00               	movlw	0
  3439  000D32  6F8A               	movwf	efgtoa@i& (0+255),b
  3440  000D34                     
  3441                           ; BSR set to: 0
  3442                           ;C:\Program Files\Microchip\xc8\v2.20\pic\sources\c99\common\doprnt.c: 416:     h = g;
  3443  000D34  C08C  F082         	movff	efgtoa@g,efgtoa@h
  3444  000D38  C08D  F083         	movff	efgtoa@g+1,efgtoa@h+1
  3445  000D3C  C08E  F084         	movff	efgtoa@g+2,efgtoa@h+2
  3446  000D40  C08F  F085         	movff	efgtoa@g+3,efgtoa@h+3
  3447  000D44                     
  3448                           ; BSR set to: 0
  3449                           ;C:\Program Files\Microchip\xc8\v2.20\pic\sources\c99\common\doprnt.c: 417:     ou = u;
  3450  000D44  C094  F060         	movff	efgtoa@u,efgtoa@ou
  3451  000D48  C095  F061         	movff	efgtoa@u+1,efgtoa@ou+1
  3452  000D4C  C096  F062         	movff	efgtoa@u+2,efgtoa@ou+2
  3453  000D50  C097  F063         	movff	efgtoa@u+3,efgtoa@ou+3
  3454                           
  3455                           ;C:\Program Files\Microchip\xc8\v2.20\pic\sources\c99\common\doprnt.c: 418:     while (i
      +                           < m) {
  3456  000D54  EF27  F007         	goto	i2l3610
  3457  000D58                     i2l3602:
  3458                           
  3459                           ; BSR set to: 0
  3460                           ;C:\Program Files\Microchip\xc8\v2.20\pic\sources\c99\common\doprnt.c: 419:         l = 
      +                          floorf(h/u);
  3461  000D58  C082  F001         	movff	efgtoa@h,___fldiv@b
  3462  000D5C  C083  F002         	movff	efgtoa@h+1,___fldiv@b+1
  3463  000D60  C084  F003         	movff	efgtoa@h+2,___fldiv@b+2
  3464  000D64  C085  F004         	movff	efgtoa@h+3,___fldiv@b+3
  3465  000D68  C094  F005         	movff	efgtoa@u,___fldiv@a
  3466  000D6C  C095  F006         	movff	efgtoa@u+1,___fldiv@a+1
  3467  000D70  C096  F007         	movff	efgtoa@u+2,___fldiv@a+2
  3468  000D74  C097  F008         	movff	efgtoa@u+3,___fldiv@a+3
  3469  000D78  ECF1  F010         	call	___fldiv	;wreg free
  3470  000D7C  C001  F01A         	movff	?___fldiv,floorf@x
  3471  000D80  C002  F01B         	movff	?___fldiv+1,floorf@x+1
  3472  000D84  C003  F01C         	movff	?___fldiv+2,floorf@x+2
  3473  000D88  C004  F01D         	movff	?___fldiv+3,floorf@x+3
  3474  000D8C  ECBE  F012         	call	_floorf	;wreg free
  3475  000D90  C01A  F086         	movff	?_floorf,efgtoa@l
  3476  000D94  C01B  F087         	movff	?_floorf+1,efgtoa@l+1
  3477  000D98  C01C  F088         	movff	?_floorf+2,efgtoa@l+2
  3478  000D9C  C01D  F089         	movff	?_floorf+3,efgtoa@l+3
  3479                           
  3480                           ;C:\Program Files\Microchip\xc8\v2.20\pic\sources\c99\common\doprnt.c: 420:         d = 
      +                          (int)l;
  3481  000DA0  C086  F001         	movff	efgtoa@l,___fltol@f1
  3482  000DA4  C087  F002         	movff	efgtoa@l+1,___fltol@f1+1
  3483  000DA8  C088  F003         	movff	efgtoa@l+2,___fltol@f1+2
  3484  000DAC  C089  F004         	movff	efgtoa@l+3,___fltol@f1+3
  3485  000DB0  ECED  F015         	call	___fltol	;wreg free
  3486  000DB4  C001  F078         	movff	?___fltol,efgtoa@d
  3487  000DB8  C002  F079         	movff	?___fltol+1,efgtoa@d+1
  3488  000DBC                     
  3489                           ;C:\Program Files\Microchip\xc8\v2.20\pic\sources\c99\common\doprnt.c: 421:         h -=
      +                           l*u;
  3490  000DBC  C082  F028         	movff	efgtoa@h,___flsub@b
  3491  000DC0  C083  F029         	movff	efgtoa@h+1,___flsub@b+1
  3492  000DC4  C084  F02A         	movff	efgtoa@h+2,___flsub@b+2
  3493  000DC8  C085  F02B         	movff	efgtoa@h+3,___flsub@b+3
  3494  000DCC  C094  F013         	movff	efgtoa@u,___flmul@a
  3495  000DD0  C095  F014         	movff	efgtoa@u+1,___flmul@a+1
  3496  000DD4  C096  F015         	movff	efgtoa@u+2,___flmul@a+2
  3497  000DD8  C097  F016         	movff	efgtoa@u+3,___flmul@a+3
  3498  000DDC  C086  F00F         	movff	efgtoa@l,___flmul@b
  3499  000DE0  C087  F010         	movff	efgtoa@l+1,___flmul@b+1
  3500  000DE4  C088  F011         	movff	efgtoa@l+2,___flmul@b+2
  3501  000DE8  C089  F012         	movff	efgtoa@l+3,___flmul@b+3
  3502  000DEC  ECDC  F00E         	call	___flmul	;wreg free
  3503  000DF0  C00F  F02C         	movff	?___flmul,___flsub@a
  3504  000DF4  C010  F02D         	movff	?___flmul+1,___flsub@a+1
  3505  000DF8  C011  F02E         	movff	?___flmul+2,___flsub@a+2
  3506  000DFC  C012  F02F         	movff	?___flmul+3,___flsub@a+3
  3507  000E00  EC3A  F01B         	call	___flsub	;wreg free
  3508  000E04  C028  F082         	movff	?___flsub,efgtoa@h
  3509  000E08  C029  F083         	movff	?___flsub+1,efgtoa@h+1
  3510  000E0C  C02A  F084         	movff	?___flsub+2,efgtoa@h+2
  3511  000E10  C02B  F085         	movff	?___flsub+3,efgtoa@h+3
  3512  000E14                     
  3513                           ;C:\Program Files\Microchip\xc8\v2.20\pic\sources\c99\common\doprnt.c: 422:         u = 
      +                          u/10.0;
  3514  000E14  C094  F001         	movff	efgtoa@u,___fldiv@b
  3515  000E18  C095  F002         	movff	efgtoa@u+1,___fldiv@b+1
  3516  000E1C  C096  F003         	movff	efgtoa@u+2,___fldiv@b+2
  3517  000E20  C097  F004         	movff	efgtoa@u+3,___fldiv@b+3
  3518  000E24  0E00               	movlw	0
  3519  000E26  6E05               	movwf	___fldiv@a^0,c
  3520  000E28  0E00               	movlw	0
  3521  000E2A  6E06               	movwf	(___fldiv@a+1)^0,c
  3522  000E2C  0E20               	movlw	32
  3523  000E2E  6E07               	movwf	(___fldiv@a+2)^0,c
  3524  000E30  0E41               	movlw	65
  3525  000E32  6E08               	movwf	(___fldiv@a+3)^0,c
  3526  000E34  ECF1  F010         	call	___fldiv	;wreg free
  3527  000E38  C001  F094         	movff	?___fldiv,efgtoa@u
  3528  000E3C  C002  F095         	movff	?___fldiv+1,efgtoa@u+1
  3529  000E40  C003  F096         	movff	?___fldiv+2,efgtoa@u+2
  3530  000E44  C004  F097         	movff	?___fldiv+3,efgtoa@u+3
  3531  000E48                     
  3532                           ;C:\Program Files\Microchip\xc8\v2.20\pic\sources\c99\common\doprnt.c: 423:         ++i;
  3533  000E48  0100               	movlb	0	; () banked
  3534  000E4A  4B8A               	infsnz	efgtoa@i& (0+255),f,b
  3535  000E4C  2B8B               	incf	(efgtoa@i+1)& (0+255),f,b
  3536  000E4E                     i2l3610:
  3537                           
  3538                           ; BSR set to: 0
  3539                           ;C:\Program Files\Microchip\xc8\v2.20\pic\sources\c99\common\doprnt.c: 418:     while (i
      +                           < m) {
  3540  000E4E  5174               	movf	efgtoa@m& (0+255),w,b
  3541  000E50  5D8A               	subwf	efgtoa@i& (0+255),w,b
  3542  000E52  518B               	movf	(efgtoa@i+1)& (0+255),w,b
  3543  000E54  0A80               	xorlw	128
  3544  000E56  6E3B               	movwf	??_efgtoa^0,c
  3545  000E58  5175               	movf	(efgtoa@m+1)& (0+255),w,b
  3546  000E5A  0A80               	xorlw	128
  3547  000E5C  583B               	subwfb	??_efgtoa^0,w,c
  3548  000E5E  A0D8               	btfss	status,0,c
  3549  000E60  EF34  F007         	goto	i2u420_41
  3550  000E64  EF36  F007         	goto	i2u420_40
  3551  000E68                     i2u420_41:
  3552  000E68  EFAC  F006         	goto	i2l3602
  3553  000E6C                     i2u420_40:
  3554  000E6C                     
  3555                           ; BSR set to: 0
  3556                           ;C:\Program Files\Microchip\xc8\v2.20\pic\sources\c99\common\doprnt.c: 427:     l = u*5.
      +                          0;
  3557  000E6C  C094  F00F         	movff	efgtoa@u,___flmul@b
  3558  000E70  C095  F010         	movff	efgtoa@u+1,___flmul@b+1
  3559  000E74  C096  F011         	movff	efgtoa@u+2,___flmul@b+2
  3560  000E78  C097  F012         	movff	efgtoa@u+3,___flmul@b+3
  3561  000E7C  0E00               	movlw	0
  3562  000E7E  6E13               	movwf	___flmul@a^0,c
  3563  000E80  0E00               	movlw	0
  3564  000E82  6E14               	movwf	(___flmul@a+1)^0,c
  3565  000E84  0EA0               	movlw	160
  3566  000E86  6E15               	movwf	(___flmul@a+2)^0,c
  3567  000E88  0E40               	movlw	64
  3568  000E8A  6E16               	movwf	(___flmul@a+3)^0,c
  3569  000E8C  ECDC  F00E         	call	___flmul	;wreg free
  3570  000E90  C00F  F086         	movff	?___flmul,efgtoa@l
  3571  000E94  C010  F087         	movff	?___flmul+1,efgtoa@l+1
  3572  000E98  C011  F088         	movff	?___flmul+2,efgtoa@l+2
  3573  000E9C  C012  F089         	movff	?___flmul+3,efgtoa@l+3
  3574  000EA0                     
  3575                           ;C:\Program Files\Microchip\xc8\v2.20\pic\sources\c99\common\doprnt.c: 428:     if (h < 
      +                          l) {
  3576  000EA0  C082  F028         	movff	efgtoa@h,___flge@ff1
  3577  000EA4  C083  F029         	movff	efgtoa@h+1,___flge@ff1+1
  3578  000EA8  C084  F02A         	movff	efgtoa@h+2,___flge@ff1+2
  3579  000EAC  C085  F02B         	movff	efgtoa@h+3,___flge@ff1+3
  3580  000EB0  C086  F02C         	movff	efgtoa@l,___flge@ff2
  3581  000EB4  C087  F02D         	movff	efgtoa@l+1,___flge@ff2+1
  3582  000EB8  C088  F02E         	movff	efgtoa@l+2,___flge@ff2+2
  3583  000EBC  C089  F02F         	movff	efgtoa@l+3,___flge@ff2+3
  3584  000EC0  EC70  F016         	call	___flge	;wreg free
  3585  000EC4  B0D8               	btfsc	status,0,c
  3586  000EC6  EF67  F007         	goto	i2u421_41
  3587  000ECA  EF69  F007         	goto	i2u421_40
  3588  000ECE                     i2u421_41:
  3589  000ECE  EF74  F007         	goto	i2l3618
  3590  000ED2                     i2u421_40:
  3591  000ED2                     
  3592                           ;C:\Program Files\Microchip\xc8\v2.20\pic\sources\c99\common\doprnt.c: 429:         l = 
      +                          0.0;
  3593  000ED2  0E00               	movlw	0
  3594  000ED4  0100               	movlb	0	; () banked
  3595  000ED6  6F86               	movwf	efgtoa@l& (0+255),b
  3596  000ED8  0E00               	movlw	0
  3597  000EDA  6F87               	movwf	(efgtoa@l+1)& (0+255),b
  3598  000EDC  0E00               	movlw	0
  3599  000EDE  6F88               	movwf	(efgtoa@l+2)& (0+255),b
  3600  000EE0  0E00               	movlw	0
  3601  000EE2  6F89               	movwf	(efgtoa@l+3)& (0+255),b
  3602                           
  3603                           ;C:\Program Files\Microchip\xc8\v2.20\pic\sources\c99\common\doprnt.c: 430:     } else {
  3604  000EE4  EF9D  F007         	goto	i2l3624
  3605  000EE8                     i2l3618:
  3606                           
  3607                           ;C:\Program Files\Microchip\xc8\v2.20\pic\sources\c99\common\doprnt.c: 432:         if (
      +                          (h == l) && !(d % 2)) {
  3608  000EE8  C082  F001         	movff	efgtoa@h,___fleq@ff1
  3609  000EEC  C083  F002         	movff	efgtoa@h+1,___fleq@ff1+1
  3610  000EF0  C084  F003         	movff	efgtoa@h+2,___fleq@ff1+2
  3611  000EF4  C085  F004         	movff	efgtoa@h+3,___fleq@ff1+3
  3612  000EF8  C086  F005         	movff	efgtoa@l,___fleq@ff2
  3613  000EFC  C087  F006         	movff	efgtoa@l+1,___fleq@ff2+1
  3614  000F00  C088  F007         	movff	efgtoa@l+2,___fleq@ff2+2
  3615  000F04  C089  F008         	movff	efgtoa@l+3,___fleq@ff2+3
  3616  000F08  EC5E  F019         	call	___fleq	;wreg free
  3617  000F0C  A0D8               	btfss	status,0,c
  3618  000F0E  EF8B  F007         	goto	i2u422_41
  3619  000F12  EF8D  F007         	goto	i2u422_40
  3620  000F16                     i2u422_41:
  3621  000F16  EF9D  F007         	goto	i2l3624
  3622  000F1A                     i2u422_40:
  3623  000F1A  0100               	movlb	0	; () banked
  3624  000F1C  B178               	btfsc	efgtoa@d& (0+255),0,b
  3625  000F1E  EF93  F007         	goto	i2u423_41
  3626  000F22  EF95  F007         	goto	i2u423_40
  3627  000F26                     i2u423_41:
  3628  000F26  EF9D  F007         	goto	i2l3624
  3629  000F2A                     i2u423_40:
  3630  000F2A                     
  3631                           ; BSR set to: 0
  3632                           ;C:\Program Files\Microchip\xc8\v2.20\pic\sources\c99\common\doprnt.c: 433:             
      +                          l = 0.0;
  3633  000F2A  0E00               	movlw	0
  3634  000F2C  6F86               	movwf	efgtoa@l& (0+255),b
  3635  000F2E  0E00               	movlw	0
  3636  000F30  6F87               	movwf	(efgtoa@l+1)& (0+255),b
  3637  000F32  0E00               	movlw	0
  3638  000F34  6F88               	movwf	(efgtoa@l+2)& (0+255),b
  3639  000F36  0E00               	movlw	0
  3640  000F38  6F89               	movwf	(efgtoa@l+3)& (0+255),b
  3641  000F3A                     i2l3624:
  3642                           
  3643                           ;C:\Program Files\Microchip\xc8\v2.20\pic\sources\c99\common\doprnt.c: 438:     h = g + 
      +                          l;
  3644  000F3A  C08C  F001         	movff	efgtoa@g,___fladd@b
  3645  000F3E  C08D  F002         	movff	efgtoa@g+1,___fladd@b+1
  3646  000F42  C08E  F003         	movff	efgtoa@g+2,___fladd@b+2
  3647  000F46  C08F  F004         	movff	efgtoa@g+3,___fladd@b+3
  3648  000F4A  C086  F005         	movff	efgtoa@l,___fladd@a
  3649  000F4E  C087  F006         	movff	efgtoa@l+1,___fladd@a+1
  3650  000F52  C088  F007         	movff	efgtoa@l+2,___fladd@a+2
  3651  000F56  C089  F008         	movff	efgtoa@l+3,___fladd@a+3
  3652  000F5A  EC7C  F00C         	call	___fladd	;wreg free
  3653  000F5E  C001  F082         	movff	?___fladd,efgtoa@h
  3654  000F62  C002  F083         	movff	?___fladd+1,efgtoa@h+1
  3655  000F66  C003  F084         	movff	?___fladd+2,efgtoa@h+2
  3656  000F6A  C004  F085         	movff	?___fladd+3,efgtoa@h+3
  3657  000F6E                     
  3658                           ;C:\Program Files\Microchip\xc8\v2.20\pic\sources\c99\common\doprnt.c: 441:     u = ou;
  3659  000F6E  C060  F094         	movff	efgtoa@ou,efgtoa@u
  3660  000F72  C061  F095         	movff	efgtoa@ou+1,efgtoa@u+1
  3661  000F76  C062  F096         	movff	efgtoa@ou+2,efgtoa@u+2
  3662  000F7A  C063  F097         	movff	efgtoa@ou+3,efgtoa@u+3
  3663  000F7E                     
  3664                           ;C:\Program Files\Microchip\xc8\v2.20\pic\sources\c99\common\doprnt.c: 442:     ne = (nm
      +                          ode == 'e') ? 0 : e;
  3665  000F7E  0E65               	movlw	101
  3666  000F80  0100               	movlb	0	; () banked
  3667  000F82  197E               	xorwf	efgtoa@nmode& (0+255),w,b
  3668  000F84  B4D8               	btfsc	status,2,c
  3669  000F86  EFC7  F007         	goto	i2u424_41
  3670  000F8A  EFC9  F007         	goto	i2u424_40
  3671  000F8E                     i2u424_41:
  3672  000F8E  EFCF  F007         	goto	i2l3632
  3673  000F92                     i2u424_40:
  3674  000F92                     
  3675                           ; BSR set to: 0
  3676  000F92  C090  F076         	movff	efgtoa@e,efgtoa@ne
  3677  000F96  C091  F077         	movff	efgtoa@e+1,efgtoa@ne+1
  3678  000F9A  EFD3  F007         	goto	i2l916
  3679  000F9E                     i2l3632:
  3680                           
  3681                           ; BSR set to: 0
  3682  000F9E  0E00               	movlw	0
  3683  000FA0  6F77               	movwf	(efgtoa@ne+1)& (0+255),b
  3684  000FA2  0E00               	movlw	0
  3685  000FA4  6F76               	movwf	efgtoa@ne& (0+255),b
  3686  000FA6                     i2l916:
  3687                           
  3688                           ; BSR set to: 0
  3689                           ;C:\Program Files\Microchip\xc8\v2.20\pic\sources\c99\common\doprnt.c: 443:     pp = 0;
  3690  000FA6  0E00               	movlw	0
  3691  000FA8  6F73               	movwf	(efgtoa@pp+1)& (0+255),b
  3692  000FAA  0E00               	movlw	0
  3693  000FAC  6F72               	movwf	efgtoa@pp& (0+255),b
  3694                           
  3695                           ;C:\Program Files\Microchip\xc8\v2.20\pic\sources\c99\common\doprnt.c: 444:     t = 0;
  3696  000FAE  0E00               	movlw	0
  3697  000FB0  6F71               	movwf	(efgtoa@t+1)& (0+255),b
  3698  000FB2  0E00               	movlw	0
  3699  000FB4  6F70               	movwf	efgtoa@t& (0+255),b
  3700                           
  3701                           ;C:\Program Files\Microchip\xc8\v2.20\pic\sources\c99\common\doprnt.c: 445:     i = 0;
  3702  000FB6  0E00               	movlw	0
  3703  000FB8  6F8B               	movwf	(efgtoa@i+1)& (0+255),b
  3704  000FBA  0E00               	movlw	0
  3705  000FBC  6F8A               	movwf	efgtoa@i& (0+255),b
  3706                           
  3707                           ;C:\Program Files\Microchip\xc8\v2.20\pic\sources\c99\common\doprnt.c: 446:     while ((
      +                          i < m) && (n < (80 - 5))) {
  3708  000FBE  EFCE  F008         	goto	i2l3682
  3709  000FC2                     i2l3634:
  3710                           
  3711                           ; BSR set to: 0
  3712                           ;C:\Program Files\Microchip\xc8\v2.20\pic\sources\c99\common\doprnt.c: 447:         l = 
      +                          floorf(h/u);
  3713  000FC2  C082  F001         	movff	efgtoa@h,___fldiv@b
  3714  000FC6  C083  F002         	movff	efgtoa@h+1,___fldiv@b+1
  3715  000FCA  C084  F003         	movff	efgtoa@h+2,___fldiv@b+2
  3716  000FCE  C085  F004         	movff	efgtoa@h+3,___fldiv@b+3
  3717  000FD2  C094  F005         	movff	efgtoa@u,___fldiv@a
  3718  000FD6  C095  F006         	movff	efgtoa@u+1,___fldiv@a+1
  3719  000FDA  C096  F007         	movff	efgtoa@u+2,___fldiv@a+2
  3720  000FDE  C097  F008         	movff	efgtoa@u+3,___fldiv@a+3
  3721  000FE2  ECF1  F010         	call	___fldiv	;wreg free
  3722  000FE6  C001  F01A         	movff	?___fldiv,floorf@x
  3723  000FEA  C002  F01B         	movff	?___fldiv+1,floorf@x+1
  3724  000FEE  C003  F01C         	movff	?___fldiv+2,floorf@x+2
  3725  000FF2  C004  F01D         	movff	?___fldiv+3,floorf@x+3
  3726  000FF6  ECBE  F012         	call	_floorf	;wreg free
  3727  000FFA  C01A  F086         	movff	?_floorf,efgtoa@l
  3728  000FFE  C01B  F087         	movff	?_floorf+1,efgtoa@l+1
  3729  001002  C01C  F088         	movff	?_floorf+2,efgtoa@l+2
  3730  001006  C01D  F089         	movff	?_floorf+3,efgtoa@l+3
  3731                           
  3732                           ;C:\Program Files\Microchip\xc8\v2.20\pic\sources\c99\common\doprnt.c: 448:         d = 
      +                          (int)l;
  3733  00100A  C086  F001         	movff	efgtoa@l,___fltol@f1
  3734  00100E  C087  F002         	movff	efgtoa@l+1,___fltol@f1+1
  3735  001012  C088  F003         	movff	efgtoa@l+2,___fltol@f1+2
  3736  001016  C089  F004         	movff	efgtoa@l+3,___fltol@f1+3
  3737  00101A  ECED  F015         	call	___fltol	;wreg free
  3738  00101E  C001  F078         	movff	?___fltol,efgtoa@d
  3739  001022  C002  F079         	movff	?___fltol+1,efgtoa@d+1
  3740  001026                     
  3741                           ;C:\Program Files\Microchip\xc8\v2.20\pic\sources\c99\common\doprnt.c: 449:         if (
      +                          !(flags & (1 << 4)) && !d && (mode == 'g') && (ne < 0)) {
  3742  001026  0100               	movlb	0	; () banked
  3743  001028  B9CA               	btfsc	_flags& (0+255),4,b
  3744  00102A  EF19  F008         	goto	i2u425_41
  3745  00102E  EF1B  F008         	goto	i2u425_40
  3746  001032                     i2u425_41:
  3747  001032  EF38  F008         	goto	i2l3646
  3748  001036                     i2u425_40:
  3749  001036                     
  3750                           ; BSR set to: 0
  3751  001036  5178               	movf	efgtoa@d& (0+255),w,b
  3752  001038  1179               	iorwf	(efgtoa@d+1)& (0+255),w,b
  3753  00103A  A4D8               	btfss	status,2,c
  3754  00103C  EF22  F008         	goto	i2u426_41
  3755  001040  EF24  F008         	goto	i2u426_40
  3756  001044                     i2u426_41:
  3757  001044  EF38  F008         	goto	i2l3646
  3758  001048                     i2u426_40:
  3759  001048                     
  3760                           ; BSR set to: 0
  3761  001048  0E67               	movlw	103
  3762  00104A  1981               	xorwf	efgtoa@mode& (0+255),w,b
  3763  00104C  A4D8               	btfss	status,2,c
  3764  00104E  EF2B  F008         	goto	i2u427_41
  3765  001052  EF2D  F008         	goto	i2u427_40
  3766  001056                     i2u427_41:
  3767  001056  EF38  F008         	goto	i2l3646
  3768  00105A                     i2u427_40:
  3769  00105A                     
  3770                           ; BSR set to: 0
  3771  00105A  BF77               	btfsc	(efgtoa@ne+1)& (0+255),7,b
  3772  00105C  EF34  F008         	goto	i2u428_40
  3773  001060  EF32  F008         	goto	i2u428_41
  3774  001064                     i2u428_41:
  3775  001064  EF38  F008         	goto	i2l3646
  3776  001068                     i2u428_40:
  3777  001068                     
  3778                           ; BSR set to: 0
  3779                           ;C:\Program Files\Microchip\xc8\v2.20\pic\sources\c99\common\doprnt.c: 450:             
      +                          ++t;
  3780  001068  4B70               	infsnz	efgtoa@t& (0+255),f,b
  3781  00106A  2B71               	incf	(efgtoa@t+1)& (0+255),f,b
  3782                           
  3783                           ;C:\Program Files\Microchip\xc8\v2.20\pic\sources\c99\common\doprnt.c: 451:         } el
      +                          se {
  3784  00106C  EF82  F008         	goto	i2l3674
  3785  001070                     i2l3646:
  3786                           
  3787                           ; BSR set to: 0
  3788                           ;C:\Program Files\Microchip\xc8\v2.20\pic\sources\c99\common\doprnt.c: 452:             
      +                          if (!pp && (ne < 0)) {
  3789  001070  5172               	movf	efgtoa@pp& (0+255),w,b
  3790  001072  1173               	iorwf	(efgtoa@pp+1)& (0+255),w,b
  3791  001074  A4D8               	btfss	status,2,c
  3792  001076  EF3F  F008         	goto	i2u429_41
  3793  00107A  EF41  F008         	goto	i2u429_40
  3794  00107E                     i2u429_41:
  3795  00107E  EF6B  F008         	goto	i2l3666
  3796  001082                     i2u429_40:
  3797  001082                     
  3798                           ; BSR set to: 0
  3799  001082  BF77               	btfsc	(efgtoa@ne+1)& (0+255),7,b
  3800  001084  EF48  F008         	goto	i2u430_40
  3801  001088  EF46  F008         	goto	i2u430_41
  3802  00108C                     i2u430_41:
  3803  00108C  EF6B  F008         	goto	i2l3666
  3804  001090                     i2u430_40:
  3805  001090                     
  3806                           ; BSR set to: 0
  3807                           ;C:\Program Files\Microchip\xc8\v2.20\pic\sources\c99\common\doprnt.c: 453:             
      +                              dbuf[n++] = '.';
  3808  001090  0E00               	movlw	low _dbuf
  3809  001092  2592               	addwf	efgtoa@n& (0+255),w,b
  3810  001094  6ED9               	movwf	fsr2l,c
  3811  001096  0E01               	movlw	high _dbuf
  3812  001098  2193               	addwfc	(efgtoa@n+1)& (0+255),w,b
  3813  00109A  6EDA               	movwf	fsr2h,c
  3814  00109C  0E2E               	movlw	46
  3815  00109E  6EDF               	movwf	indf2,c
  3816  0010A0                     
  3817                           ; BSR set to: 0
  3818  0010A0  4B92               	infsnz	efgtoa@n& (0+255),f,b
  3819  0010A2  2B93               	incf	(efgtoa@n+1)& (0+255),f,b
  3820  0010A4                     
  3821                           ; BSR set to: 0
  3822                           ;C:\Program Files\Microchip\xc8\v2.20\pic\sources\c99\common\doprnt.c: 454:             
      +                              --w;
  3823  0010A4  077F               	decf	efgtoa@w& (0+255),f,b
  3824  0010A6  A0D8               	btfss	status,0,c
  3825  0010A8  0780               	decf	(efgtoa@w+1)& (0+255),f,b
  3826  0010AA                     
  3827                           ; BSR set to: 0
  3828                           ;C:\Program Files\Microchip\xc8\v2.20\pic\sources\c99\common\doprnt.c: 455:             
      +                              pp = 1;
  3829  0010AA  0E00               	movlw	0
  3830  0010AC  6F73               	movwf	(efgtoa@pp+1)& (0+255),b
  3831  0010AE  0E01               	movlw	1
  3832  0010B0  6F72               	movwf	efgtoa@pp& (0+255),b
  3833  0010B2  EF6B  F008         	goto	i2l3666
  3834  0010B6                     i2l3658:
  3835                           
  3836                           ; BSR set to: 0
  3837                           ;C:\Program Files\Microchip\xc8\v2.20\pic\sources\c99\common\doprnt.c: 458:             
      +                              dbuf[n++] = '0';
  3838  0010B6  0E00               	movlw	low _dbuf
  3839  0010B8  2592               	addwf	efgtoa@n& (0+255),w,b
  3840  0010BA  6ED9               	movwf	fsr2l,c
  3841  0010BC  0E01               	movlw	high _dbuf
  3842  0010BE  2193               	addwfc	(efgtoa@n+1)& (0+255),w,b
  3843  0010C0  6EDA               	movwf	fsr2h,c
  3844  0010C2  0E30               	movlw	48
  3845  0010C4  6EDF               	movwf	indf2,c
  3846  0010C6                     
  3847                           ; BSR set to: 0
  3848  0010C6  4B92               	infsnz	efgtoa@n& (0+255),f,b
  3849  0010C8  2B93               	incf	(efgtoa@n+1)& (0+255),f,b
  3850  0010CA                     
  3851                           ; BSR set to: 0
  3852                           ;C:\Program Files\Microchip\xc8\v2.20\pic\sources\c99\common\doprnt.c: 459:             
      +                              --w;
  3853  0010CA  077F               	decf	efgtoa@w& (0+255),f,b
  3854  0010CC  A0D8               	btfss	status,0,c
  3855  0010CE  0780               	decf	(efgtoa@w+1)& (0+255),f,b
  3856  0010D0                     
  3857                           ; BSR set to: 0
  3858                           ;C:\Program Files\Microchip\xc8\v2.20\pic\sources\c99\common\doprnt.c: 460:             
      +                              --t;
  3859  0010D0  0770               	decf	efgtoa@t& (0+255),f,b
  3860  0010D2  A0D8               	btfss	status,0,c
  3861  0010D4  0771               	decf	(efgtoa@t+1)& (0+255),f,b
  3862  0010D6                     i2l3666:
  3863                           
  3864                           ; BSR set to: 0
  3865                           ;C:\Program Files\Microchip\xc8\v2.20\pic\sources\c99\common\doprnt.c: 457:             
      +                          while (t) {
  3866  0010D6  5170               	movf	efgtoa@t& (0+255),w,b
  3867  0010D8  1171               	iorwf	(efgtoa@t+1)& (0+255),w,b
  3868  0010DA  A4D8               	btfss	status,2,c
  3869  0010DC  EF72  F008         	goto	i2u431_41
  3870  0010E0  EF74  F008         	goto	i2u431_40
  3871  0010E4                     i2u431_41:
  3872  0010E4  EF5B  F008         	goto	i2l3658
  3873  0010E8                     i2u431_40:
  3874  0010E8                     
  3875                           ; BSR set to: 0
  3876                           ;C:\Program Files\Microchip\xc8\v2.20\pic\sources\c99\common\doprnt.c: 462:             
      +                          dbuf[n++] = '0' + d;
  3877  0010E8  0E00               	movlw	low _dbuf
  3878  0010EA  2592               	addwf	efgtoa@n& (0+255),w,b
  3879  0010EC  6ED9               	movwf	fsr2l,c
  3880  0010EE  0E01               	movlw	high _dbuf
  3881  0010F0  2193               	addwfc	(efgtoa@n+1)& (0+255),w,b
  3882  0010F2  6EDA               	movwf	fsr2h,c
  3883  0010F4  5178               	movf	efgtoa@d& (0+255),w,b
  3884  0010F6  0F30               	addlw	48
  3885  0010F8  6EDF               	movwf	indf2,c
  3886  0010FA                     
  3887                           ; BSR set to: 0
  3888  0010FA  4B92               	infsnz	efgtoa@n& (0+255),f,b
  3889  0010FC  2B93               	incf	(efgtoa@n+1)& (0+255),f,b
  3890  0010FE                     
  3891                           ; BSR set to: 0
  3892                           ;C:\Program Files\Microchip\xc8\v2.20\pic\sources\c99\common\doprnt.c: 463:             
      +                          --w;
  3893  0010FE  077F               	decf	efgtoa@w& (0+255),f,b
  3894  001100  A0D8               	btfss	status,0,c
  3895  001102  0780               	decf	(efgtoa@w+1)& (0+255),f,b
  3896  001104                     i2l3674:
  3897                           
  3898                           ; BSR set to: 0
  3899                           ;C:\Program Files\Microchip\xc8\v2.20\pic\sources\c99\common\doprnt.c: 465:         h -=
      +                           l*u;
  3900  001104  C082  F028         	movff	efgtoa@h,___flsub@b
  3901  001108  C083  F029         	movff	efgtoa@h+1,___flsub@b+1
  3902  00110C  C084  F02A         	movff	efgtoa@h+2,___flsub@b+2
  3903  001110  C085  F02B         	movff	efgtoa@h+3,___flsub@b+3
  3904  001114  C094  F013         	movff	efgtoa@u,___flmul@a
  3905  001118  C095  F014         	movff	efgtoa@u+1,___flmul@a+1
  3906  00111C  C096  F015         	movff	efgtoa@u+2,___flmul@a+2
  3907  001120  C097  F016         	movff	efgtoa@u+3,___flmul@a+3
  3908  001124  C086  F00F         	movff	efgtoa@l,___flmul@b
  3909  001128  C087  F010         	movff	efgtoa@l+1,___flmul@b+1
  3910  00112C  C088  F011         	movff	efgtoa@l+2,___flmul@b+2
  3911  001130  C089  F012         	movff	efgtoa@l+3,___flmul@b+3
  3912  001134  ECDC  F00E         	call	___flmul	;wreg free
  3913  001138  C00F  F02C         	movff	?___flmul,___flsub@a
  3914  00113C  C010  F02D         	movff	?___flmul+1,___flsub@a+1
  3915  001140  C011  F02E         	movff	?___flmul+2,___flsub@a+2
  3916  001144  C012  F02F         	movff	?___flmul+3,___flsub@a+3
  3917  001148  EC3A  F01B         	call	___flsub	;wreg free
  3918  00114C  C028  F082         	movff	?___flsub,efgtoa@h
  3919  001150  C029  F083         	movff	?___flsub+1,efgtoa@h+1
  3920  001154  C02A  F084         	movff	?___flsub+2,efgtoa@h+2
  3921  001158  C02B  F085         	movff	?___flsub+3,efgtoa@h+3
  3922  00115C                     
  3923                           ;C:\Program Files\Microchip\xc8\v2.20\pic\sources\c99\common\doprnt.c: 466:         u = 
      +                          u/10.0;
  3924  00115C  C094  F001         	movff	efgtoa@u,___fldiv@b
  3925  001160  C095  F002         	movff	efgtoa@u+1,___fldiv@b+1
  3926  001164  C096  F003         	movff	efgtoa@u+2,___fldiv@b+2
  3927  001168  C097  F004         	movff	efgtoa@u+3,___fldiv@b+3
  3928  00116C  0E00               	movlw	0
  3929  00116E  6E05               	movwf	___fldiv@a^0,c
  3930  001170  0E00               	movlw	0
  3931  001172  6E06               	movwf	(___fldiv@a+1)^0,c
  3932  001174  0E20               	movlw	32
  3933  001176  6E07               	movwf	(___fldiv@a+2)^0,c
  3934  001178  0E41               	movlw	65
  3935  00117A  6E08               	movwf	(___fldiv@a+3)^0,c
  3936  00117C  ECF1  F010         	call	___fldiv	;wreg free
  3937  001180  C001  F094         	movff	?___fldiv,efgtoa@u
  3938  001184  C002  F095         	movff	?___fldiv+1,efgtoa@u+1
  3939  001188  C003  F096         	movff	?___fldiv+2,efgtoa@u+2
  3940  00118C  C004  F097         	movff	?___fldiv+3,efgtoa@u+3
  3941  001190                     
  3942                           ;C:\Program Files\Microchip\xc8\v2.20\pic\sources\c99\common\doprnt.c: 467:         --ne
      +                          ;
  3943  001190  0100               	movlb	0	; () banked
  3944  001192  0776               	decf	efgtoa@ne& (0+255),f,b
  3945  001194  A0D8               	btfss	status,0,c
  3946  001196  0777               	decf	(efgtoa@ne+1)& (0+255),f,b
  3947  001198                     
  3948                           ; BSR set to: 0
  3949                           ;C:\Program Files\Microchip\xc8\v2.20\pic\sources\c99\common\doprnt.c: 468:         ++i;
  3950  001198  4B8A               	infsnz	efgtoa@i& (0+255),f,b
  3951  00119A  2B8B               	incf	(efgtoa@i+1)& (0+255),f,b
  3952  00119C                     i2l3682:
  3953                           
  3954                           ; BSR set to: 0
  3955                           ;C:\Program Files\Microchip\xc8\v2.20\pic\sources\c99\common\doprnt.c: 446:     while ((
      +                          i < m) && (n < (80 - 5))) {
  3956  00119C  5174               	movf	efgtoa@m& (0+255),w,b
  3957  00119E  5D8A               	subwf	efgtoa@i& (0+255),w,b
  3958  0011A0  518B               	movf	(efgtoa@i+1)& (0+255),w,b
  3959  0011A2  0A80               	xorlw	128
  3960  0011A4  6E3B               	movwf	??_efgtoa^0,c
  3961  0011A6  5175               	movf	(efgtoa@m+1)& (0+255),w,b
  3962  0011A8  0A80               	xorlw	128
  3963  0011AA  583B               	subwfb	??_efgtoa^0,w,c
  3964  0011AC  B0D8               	btfsc	status,0,c
  3965  0011AE  EFDB  F008         	goto	i2u432_41
  3966  0011B2  EFDD  F008         	goto	i2u432_40
  3967  0011B6                     i2u432_41:
  3968  0011B6  EFEB  F008         	goto	i2l3686
  3969  0011BA                     i2u432_40:
  3970  0011BA                     
  3971                           ; BSR set to: 0
  3972  0011BA  BF93               	btfsc	(efgtoa@n+1)& (0+255),7,b
  3973  0011BC  EFE9  F008         	goto	i2u433_41
  3974  0011C0  5193               	movf	(efgtoa@n+1)& (0+255),w,b
  3975  0011C2  E109               	bnz	i2u433_40
  3976  0011C4  0E4B               	movlw	75
  3977  0011C6  5D92               	subwf	efgtoa@n& (0+255),w,b
  3978  0011C8  A0D8               	btfss	status,0,c
  3979  0011CA  EFE9  F008         	goto	i2u433_41
  3980  0011CE  EFEB  F008         	goto	i2u433_40
  3981  0011D2                     i2u433_41:
  3982  0011D2  EFE1  F007         	goto	i2l3634
  3983  0011D6                     i2u433_40:
  3984  0011D6                     i2l3686:
  3985                           
  3986                           ; BSR set to: 0
  3987                           ;C:\Program Files\Microchip\xc8\v2.20\pic\sources\c99\common\doprnt.c: 470:     if (!pp 
      +                          && (flags & (1 << 4))) {
  3988  0011D6  5172               	movf	efgtoa@pp& (0+255),w,b
  3989  0011D8  1173               	iorwf	(efgtoa@pp+1)& (0+255),w,b
  3990  0011DA  A4D8               	btfss	status,2,c
  3991  0011DC  EFF2  F008         	goto	i2u434_41
  3992  0011E0  EFF4  F008         	goto	i2u434_40
  3993  0011E4                     i2u434_41:
  3994  0011E4  EF05  F009         	goto	i2l3694
  3995  0011E8                     i2u434_40:
  3996  0011E8                     
  3997                           ; BSR set to: 0
  3998  0011E8  A9CA               	btfss	_flags& (0+255),4,b
  3999  0011EA  EFF9  F008         	goto	i2u435_41
  4000  0011EE  EFFB  F008         	goto	i2u435_40
  4001  0011F2                     i2u435_41:
  4002  0011F2  EF05  F009         	goto	i2l3694
  4003  0011F6                     i2u435_40:
  4004  0011F6                     
  4005                           ; BSR set to: 0
  4006                           ;C:\Program Files\Microchip\xc8\v2.20\pic\sources\c99\common\doprnt.c: 471:         dbuf
      +                          [n++] = '.';
  4007  0011F6  0E00               	movlw	low _dbuf
  4008  0011F8  2592               	addwf	efgtoa@n& (0+255),w,b
  4009  0011FA  6ED9               	movwf	fsr2l,c
  4010  0011FC  0E01               	movlw	high _dbuf
  4011  0011FE  2193               	addwfc	(efgtoa@n+1)& (0+255),w,b
  4012  001200  6EDA               	movwf	fsr2h,c
  4013  001202  0E2E               	movlw	46
  4014  001204  6EDF               	movwf	indf2,c
  4015  001206                     
  4016                           ; BSR set to: 0
  4017  001206  4B92               	infsnz	efgtoa@n& (0+255),f,b
  4018  001208  2B93               	incf	(efgtoa@n+1)& (0+255),f,b
  4019  00120A                     i2l3694:
  4020                           
  4021                           ; BSR set to: 0
  4022                           ;C:\Program Files\Microchip\xc8\v2.20\pic\sources\c99\common\doprnt.c: 473:     dbuf[n] 
      +                          = '\0';
  4023  00120A  0E00               	movlw	low _dbuf
  4024  00120C  2592               	addwf	efgtoa@n& (0+255),w,b
  4025  00120E  6ED9               	movwf	fsr2l,c
  4026  001210  0E01               	movlw	high _dbuf
  4027  001212  2193               	addwfc	(efgtoa@n+1)& (0+255),w,b
  4028  001214  6EDA               	movwf	fsr2h,c
  4029  001216  0E00               	movlw	0
  4030  001218  6EDF               	movwf	indf2,c
  4031  00121A                     
  4032                           ; BSR set to: 0
  4033                           ;C:\Program Files\Microchip\xc8\v2.20\pic\sources\c99\common\doprnt.c: 476:     if (nmod
      +                          e == 'e') {
  4034  00121A  0E65               	movlw	101
  4035  00121C  197E               	xorwf	efgtoa@nmode& (0+255),w,b
  4036  00121E  A4D8               	btfss	status,2,c
  4037  001220  EF14  F009         	goto	i2u436_41
  4038  001224  EF16  F009         	goto	i2u436_40
  4039  001228                     i2u436_41:
  4040  001228  EFC4  F004         	goto	i2l3506
  4041  00122C                     i2u436_40:
  4042  00122C                     
  4043                           ; BSR set to: 0
  4044                           ;C:\Program Files\Microchip\xc8\v2.20\pic\sources\c99\common\doprnt.c: 477:         i = 
      +                          sizeof(dbuf) - 1;
  4045  00122C  0E00               	movlw	0
  4046  00122E  6F8B               	movwf	(efgtoa@i+1)& (0+255),b
  4047  001230  0E4F               	movlw	79
  4048  001232  6F8A               	movwf	efgtoa@i& (0+255),b
  4049  001234                     
  4050                           ; BSR set to: 0
  4051                           ;C:\Program Files\Microchip\xc8\v2.20\pic\sources\c99\common\doprnt.c: 478:         dbuf
      +                          [i] = '\0';
  4052  001234  0E00               	movlw	low _dbuf
  4053  001236  258A               	addwf	efgtoa@i& (0+255),w,b
  4054  001238  6ED9               	movwf	fsr2l,c
  4055  00123A  0E01               	movlw	high _dbuf
  4056  00123C  218B               	addwfc	(efgtoa@i+1)& (0+255),w,b
  4057  00123E  6EDA               	movwf	fsr2h,c
  4058  001240  0E00               	movlw	0
  4059  001242  6EDF               	movwf	indf2,c
  4060  001244                     
  4061                           ; BSR set to: 0
  4062                           ;C:\Program Files\Microchip\xc8\v2.20\pic\sources\c99\common\doprnt.c: 479:         sign
      +                           = 0;
  4063  001244  0E00               	movlw	0
  4064  001246  6F7B               	movwf	(efgtoa@sign+1)& (0+255),b
  4065  001248  0E00               	movlw	0
  4066  00124A  6F7A               	movwf	efgtoa@sign& (0+255),b
  4067  00124C                     
  4068                           ; BSR set to: 0
  4069                           ;C:\Program Files\Microchip\xc8\v2.20\pic\sources\c99\common\doprnt.c: 480:         if (
      +                          e < 0) {
  4070  00124C  BF91               	btfsc	(efgtoa@e+1)& (0+255),7,b
  4071  00124E  EF2D  F009         	goto	i2u437_40
  4072  001252  EF2B  F009         	goto	i2u437_41
  4073  001256                     i2u437_41:
  4074  001256  EF35  F009         	goto	i2l3710
  4075  00125A                     i2u437_40:
  4076  00125A                     
  4077                           ; BSR set to: 0
  4078                           ;C:\Program Files\Microchip\xc8\v2.20\pic\sources\c99\common\doprnt.c: 481:             
      +                          sign = 1;
  4079  00125A  0E00               	movlw	0
  4080  00125C  6F7B               	movwf	(efgtoa@sign+1)& (0+255),b
  4081  00125E  0E01               	movlw	1
  4082  001260  6F7A               	movwf	efgtoa@sign& (0+255),b
  4083  001262                     
  4084                           ; BSR set to: 0
  4085                           ;C:\Program Files\Microchip\xc8\v2.20\pic\sources\c99\common\doprnt.c: 482:             
      +                          e = -e;
  4086  001262  6D90               	negf	efgtoa@e& (0+255),b
  4087  001264  1F91               	comf	(efgtoa@e+1)& (0+255),f,b
  4088  001266  B0D8               	btfsc	status,0,c
  4089  001268  2B91               	incf	(efgtoa@e+1)& (0+255),f,b
  4090  00126A                     i2l3710:
  4091                           
  4092                           ; BSR set to: 0
  4093                           ;C:\Program Files\Microchip\xc8\v2.20\pic\sources\c99\common\doprnt.c: 484:         p = 
      +                          2;
  4094  00126A  0E00               	movlw	0
  4095  00126C  6F7D               	movwf	(efgtoa@p+1)& (0+255),b
  4096  00126E  0E02               	movlw	2
  4097  001270  6F7C               	movwf	efgtoa@p& (0+255),b
  4098                           
  4099                           ;C:\Program Files\Microchip\xc8\v2.20\pic\sources\c99\common\doprnt.c: 485:         whil
      +                          e (e || (0 < p)) {
  4100  001272  EF66  F009         	goto	i2l3722
  4101  001276                     i2l3712:
  4102                           
  4103                           ; BSR set to: 0
  4104                           ;C:\Program Files\Microchip\xc8\v2.20\pic\sources\c99\common\doprnt.c: 486:             
      +                          --i;
  4105  001276  078A               	decf	efgtoa@i& (0+255),f,b
  4106  001278  A0D8               	btfss	status,0,c
  4107  00127A  078B               	decf	(efgtoa@i+1)& (0+255),f,b
  4108  00127C                     
  4109                           ; BSR set to: 0
  4110                           ;C:\Program Files\Microchip\xc8\v2.20\pic\sources\c99\common\doprnt.c: 487:             
      +                          dbuf[i] = '0' + (e % 10);
  4111  00127C  0E00               	movlw	low _dbuf
  4112  00127E  258A               	addwf	efgtoa@i& (0+255),w,b
  4113  001280  6ED9               	movwf	fsr2l,c
  4114  001282  0E01               	movlw	high _dbuf
  4115  001284  218B               	addwfc	(efgtoa@i+1)& (0+255),w,b
  4116  001286  6EDA               	movwf	fsr2h,c
  4117  001288  C090  F001         	movff	efgtoa@e,___awmod@dividend
  4118  00128C  C091  F002         	movff	efgtoa@e+1,___awmod@dividend+1
  4119  001290  0E00               	movlw	0
  4120  001292  6E04               	movwf	(___awmod@divisor+1)^0,c
  4121  001294  0E0A               	movlw	10
  4122  001296  6E03               	movwf	___awmod@divisor^0,c
  4123  001298  EC06  F019         	call	___awmod	;wreg free
  4124  00129C  5001               	movf	?___awmod^0,w,c
  4125  00129E  0F30               	addlw	48
  4126  0012A0  6EDF               	movwf	indf2,c
  4127  0012A2                     
  4128                           ;C:\Program Files\Microchip\xc8\v2.20\pic\sources\c99\common\doprnt.c: 488:             
      +                          e = e / 10;
  4129  0012A2  C090  F001         	movff	efgtoa@e,___awdiv@dividend
  4130  0012A6  C091  F002         	movff	efgtoa@e+1,___awdiv@dividend+1
  4131  0012AA  0E00               	movlw	0
  4132  0012AC  6E04               	movwf	(___awdiv@divisor+1)^0,c
  4133  0012AE  0E0A               	movlw	10
  4134  0012B0  6E03               	movwf	___awdiv@divisor^0,c
  4135  0012B2  ECA4  F018         	call	___awdiv	;wreg free
  4136  0012B6  C001  F090         	movff	?___awdiv,efgtoa@e
  4137  0012BA  C002  F091         	movff	?___awdiv+1,efgtoa@e+1
  4138  0012BE                     
  4139                           ;C:\Program Files\Microchip\xc8\v2.20\pic\sources\c99\common\doprnt.c: 489:             
      +                          --p;
  4140  0012BE  0100               	movlb	0	; () banked
  4141  0012C0  077C               	decf	efgtoa@p& (0+255),f,b
  4142  0012C2  A0D8               	btfss	status,0,c
  4143  0012C4  077D               	decf	(efgtoa@p+1)& (0+255),f,b
  4144  0012C6                     
  4145                           ; BSR set to: 0
  4146                           ;C:\Program Files\Microchip\xc8\v2.20\pic\sources\c99\common\doprnt.c: 490:             
      +                          --w;
  4147  0012C6  077F               	decf	efgtoa@w& (0+255),f,b
  4148  0012C8  A0D8               	btfss	status,0,c
  4149  0012CA  0780               	decf	(efgtoa@w+1)& (0+255),f,b
  4150  0012CC                     i2l3722:
  4151                           
  4152                           ; BSR set to: 0
  4153                           ;C:\Program Files\Microchip\xc8\v2.20\pic\sources\c99\common\doprnt.c: 485:         whil
      +                          e (e || (0 < p)) {
  4154  0012CC  5190               	movf	efgtoa@e& (0+255),w,b
  4155  0012CE  1191               	iorwf	(efgtoa@e+1)& (0+255),w,b
  4156  0012D0  A4D8               	btfss	status,2,c
  4157  0012D2  EF6D  F009         	goto	i2u438_41
  4158  0012D6  EF6F  F009         	goto	i2u438_40
  4159  0012DA                     i2u438_41:
  4160  0012DA  EF3B  F009         	goto	i2l3712
  4161  0012DE                     i2u438_40:
  4162  0012DE                     
  4163                           ; BSR set to: 0
  4164  0012DE  BF7D               	btfsc	(efgtoa@p+1)& (0+255),7,b
  4165  0012E0  EF7C  F009         	goto	i2u439_40
  4166  0012E4  517D               	movf	(efgtoa@p+1)& (0+255),w,b
  4167  0012E6  E106               	bnz	i2u439_41
  4168  0012E8  057C               	decf	efgtoa@p& (0+255),w,b
  4169  0012EA  B0D8               	btfsc	status,0,c
  4170  0012EC  EF7A  F009         	goto	i2u439_41
  4171  0012F0  EF7C  F009         	goto	i2u439_40
  4172  0012F4                     i2u439_41:
  4173  0012F4  EF3B  F009         	goto	i2l3712
  4174  0012F8                     i2u439_40:
  4175  0012F8                     
  4176                           ; BSR set to: 0
  4177                           ;C:\Program Files\Microchip\xc8\v2.20\pic\sources\c99\common\doprnt.c: 492:         --i;
  4178  0012F8  078A               	decf	efgtoa@i& (0+255),f,b
  4179  0012FA  A0D8               	btfss	status,0,c
  4180  0012FC  078B               	decf	(efgtoa@i+1)& (0+255),f,b
  4181  0012FE                     
  4182                           ; BSR set to: 0
  4183                           ;C:\Program Files\Microchip\xc8\v2.20\pic\sources\c99\common\doprnt.c: 493:         dbuf
      +                          [i] = sign ? '-' : '+';
  4184  0012FE  517A               	movf	efgtoa@sign& (0+255),w,b
  4185  001300  117B               	iorwf	(efgtoa@sign+1)& (0+255),w,b
  4186  001302  A4D8               	btfss	status,2,c
  4187  001304  EF86  F009         	goto	i2u440_41
  4188  001308  EF88  F009         	goto	i2u440_40
  4189  00130C                     i2u440_41:
  4190  00130C  EF8E  F009         	goto	i2l3732
  4191  001310                     i2u440_40:
  4192  001310                     
  4193                           ; BSR set to: 0
  4194  001310  0E00               	movlw	0
  4195  001312  6F6B               	movwf	(_efgtoa$1331+1)& (0+255),b
  4196  001314  0E2B               	movlw	43
  4197  001316  6F6A               	movwf	_efgtoa$1331& (0+255),b
  4198  001318  EF92  F009         	goto	i2l3734
  4199  00131C                     i2l3732:
  4200                           
  4201                           ; BSR set to: 0
  4202  00131C  0E00               	movlw	0
  4203  00131E  6F6B               	movwf	(_efgtoa$1331+1)& (0+255),b
  4204  001320  0E2D               	movlw	45
  4205  001322  6F6A               	movwf	_efgtoa$1331& (0+255),b
  4206  001324                     i2l3734:
  4207                           
  4208                           ; BSR set to: 0
  4209  001324  0E00               	movlw	low _dbuf
  4210  001326  258A               	addwf	efgtoa@i& (0+255),w,b
  4211  001328  6ED9               	movwf	fsr2l,c
  4212  00132A  0E01               	movlw	high _dbuf
  4213  00132C  218B               	addwfc	(efgtoa@i+1)& (0+255),w,b
  4214  00132E  6EDA               	movwf	fsr2h,c
  4215  001330  C06A  FFDF         	movff	_efgtoa$1331,indf2
  4216  001334                     
  4217                           ; BSR set to: 0
  4218                           ;C:\Program Files\Microchip\xc8\v2.20\pic\sources\c99\common\doprnt.c: 494:         --w;
  4219  001334  077F               	decf	efgtoa@w& (0+255),f,b
  4220  001336  A0D8               	btfss	status,0,c
  4221  001338  0780               	decf	(efgtoa@w+1)& (0+255),f,b
  4222  00133A                     
  4223                           ; BSR set to: 0
  4224                           ;C:\Program Files\Microchip\xc8\v2.20\pic\sources\c99\common\doprnt.c: 496:         dbuf
      +                          [i] = (0 ? isupper((int)c) : ((unsigned)((int)c)-'A') < 26) ? 'E' : 'e';
  4225  00133A  078A               	decf	efgtoa@i& (0+255),f,b
  4226  00133C  A0D8               	btfss	status,0,c
  4227  00133E  078B               	decf	(efgtoa@i+1)& (0+255),f,b
  4228  001340                     
  4229                           ; BSR set to: 0
  4230  001340  0EBF               	movlw	191
  4231  001342  6E3B               	movwf	??_efgtoa^0,c
  4232  001344  0EFF               	movlw	255
  4233  001346  6E3C               	movwf	(??_efgtoa+1)^0,c
  4234  001348  503A               	movf	efgtoa@c^0,w,c
  4235  00134A  6E3D               	movwf	(??_efgtoa+2)^0,c
  4236  00134C  6A3E               	clrf	(??_efgtoa+3)^0,c
  4237  00134E  503B               	movf	??_efgtoa^0,w,c
  4238  001350  263D               	addwf	(??_efgtoa+2)^0,f,c
  4239  001352  503C               	movf	(??_efgtoa+1)^0,w,c
  4240  001354  223E               	addwfc	(??_efgtoa+3)^0,f,c
  4241  001356  503E               	movf	(??_efgtoa+3)^0,w,c
  4242  001358  E10A               	bnz	i2u441_40
  4243  00135A  0E1A               	movlw	26
  4244  00135C  5C3D               	subwf	(??_efgtoa+2)^0,w,c
  4245  00135E  A0D8               	btfss	status,0,c
  4246  001360  EFB4  F009         	goto	i2u441_41
  4247  001364  EFB7  F009         	goto	i2u441_40
  4248  001368                     i2u441_41:
  4249  001368  0E01               	movlw	1
  4250  00136A  EFB8  F009         	goto	i2u442_40
  4251  00136E                     i2u441_40:
  4252  00136E  0E00               	movlw	0
  4253  001370                     i2u442_40:
  4254  001370  6F6E               	movwf	_efgtoa$1333& (0+255),b
  4255  001372  6B6F               	clrf	(_efgtoa$1333+1)& (0+255),b
  4256  001374                     
  4257                           ; BSR set to: 0
  4258  001374  516E               	movf	_efgtoa$1333& (0+255),w,b
  4259  001376  116F               	iorwf	(_efgtoa$1333+1)& (0+255),w,b
  4260  001378  A4D8               	btfss	status,2,c
  4261  00137A  EFC1  F009         	goto	i2u443_41
  4262  00137E  EFC3  F009         	goto	i2u443_40
  4263  001382                     i2u443_41:
  4264  001382  EFC9  F009         	goto	i2l3748
  4265  001386                     i2u443_40:
  4266  001386                     
  4267                           ; BSR set to: 0
  4268  001386  0E00               	movlw	0
  4269  001388  6F6D               	movwf	(_efgtoa$1332+1)& (0+255),b
  4270  00138A  0E65               	movlw	101
  4271  00138C  6F6C               	movwf	_efgtoa$1332& (0+255),b
  4272  00138E  EFCD  F009         	goto	i2l3750
  4273  001392                     i2l3748:
  4274                           
  4275                           ; BSR set to: 0
  4276  001392  0E00               	movlw	0
  4277  001394  6F6D               	movwf	(_efgtoa$1332+1)& (0+255),b
  4278  001396  0E45               	movlw	69
  4279  001398  6F6C               	movwf	_efgtoa$1332& (0+255),b
  4280  00139A                     i2l3750:
  4281                           
  4282                           ; BSR set to: 0
  4283  00139A  0E00               	movlw	low _dbuf
  4284  00139C  258A               	addwf	efgtoa@i& (0+255),w,b
  4285  00139E  6ED9               	movwf	fsr2l,c
  4286  0013A0  0E01               	movlw	high _dbuf
  4287  0013A2  218B               	addwfc	(efgtoa@i+1)& (0+255),w,b
  4288  0013A4  6EDA               	movwf	fsr2h,c
  4289  0013A6  C06C  FFDF         	movff	_efgtoa$1332,indf2
  4290  0013AA                     
  4291                           ; BSR set to: 0
  4292                           ;C:\Program Files\Microchip\xc8\v2.20\pic\sources\c99\common\doprnt.c: 497:         --w;
  4293  0013AA  077F               	decf	efgtoa@w& (0+255),f,b
  4294  0013AC  A0D8               	btfss	status,0,c
  4295  0013AE  0780               	decf	(efgtoa@w+1)& (0+255),f,b
  4296  0013B0                     
  4297                           ; BSR set to: 0
  4298                           ;C:\Program Files\Microchip\xc8\v2.20\pic\sources\c99\common\doprnt.c: 498:         strc
      +                          py(&dbuf[n], &dbuf[i]);
  4299  0013B0  0E00               	movlw	low _dbuf
  4300  0013B2  2592               	addwf	efgtoa@n& (0+255),w,b
  4301  0013B4  6E01               	movwf	strcpy@dest^0,c
  4302  0013B6  0E01               	movlw	high _dbuf
  4303  0013B8  2193               	addwfc	(efgtoa@n+1)& (0+255),w,b
  4304  0013BA  6E02               	movwf	(strcpy@dest+1)^0,c
  4305  0013BC  0E00               	movlw	low _dbuf
  4306  0013BE  258A               	addwf	efgtoa@i& (0+255),w,b
  4307  0013C0  6E03               	movwf	strcpy@src^0,c
  4308  0013C2  0E01               	movlw	high _dbuf
  4309  0013C4  218B               	addwfc	(efgtoa@i+1)& (0+255),w,b
  4310  0013C6  6E04               	movwf	(strcpy@src+1)^0,c
  4311  0013C8  ECBA  F01A         	call	_strcpy	;wreg free
  4312  0013CC  EFC4  F004         	goto	i2l3506
  4313  0013D0                     i2l872:
  4314  0013D0  0012               	return		;funcret
  4315  0013D2                     __end_of_efgtoa:
  4316                           	callstack 0
  4317                           
  4318 ;; *************** function _tolower *****************
  4319 ;; Defined at:
  4320 ;;		line 4 in file "C:\Program Files\Microchip\xc8\v2.20\pic\sources\c99\common\tolower.c"
  4321 ;; Parameters:    Size  Location     Type
  4322 ;;  c               2    6[COMRAM] int 
  4323 ;; Auto vars:     Size  Location     Type
  4324 ;;		None
  4325 ;; Return value:  Size  Location     Type
  4326 ;;                  2    6[COMRAM] int 
  4327 ;; Registers used:
  4328 ;;		wreg, status,2, status,0
  4329 ;; Tracked objects:
  4330 ;;		On entry : 0/0
  4331 ;;		On exit  : 0/0
  4332 ;;		Unchanged: 0/0
  4333 ;; Data sizes:     COMRAM   BANK0   BANK1   BANK2   BANK3   BANK4   BANK5   BANK6   BANK7
  4334 ;;      Params:         2       0       0       0       0       0       0       0       0
  4335 ;;      Locals:         2       0       0       0       0       0       0       0       0
  4336 ;;      Temps:          4       0       0       0       0       0       0       0       0
  4337 ;;      Totals:         8       0       0       0       0       0       0       0       0
  4338 ;;Total ram usage:        8 bytes
  4339 ;; Hardware stack levels used:    1
  4340 ;; Hardware stack levels required when called:    1
  4341 ;; This function calls:
  4342 ;;		_isupper
  4343 ;; This function is called by:
  4344 ;;		_efgtoa
  4345 ;;		_vfpfcnvrt
  4346 ;; This function uses a non-reentrant model
  4347 ;;
  4348                           
  4349                           	psect	text13
  4350  003514                     __ptext13:
  4351                           	callstack 0
  4352  003514                     _tolower:
  4353                           	callstack 22
  4354  003514  0EBF               	movlw	191
  4355  003516  6E09               	movwf	??_tolower^0,c
  4356  003518  0EFF               	movlw	255
  4357  00351A  6E0A               	movwf	(??_tolower+1)^0,c
  4358  00351C  C007  F00B         	movff	tolower@c,??_tolower+2
  4359  003520  C008  F00C         	movff	tolower@c+1,??_tolower+3
  4360  003524  5009               	movf	??_tolower^0,w,c
  4361  003526  260B               	addwf	(??_tolower+2)^0,f,c
  4362  003528  500A               	movf	(??_tolower+1)^0,w,c
  4363  00352A  220C               	addwfc	(??_tolower+3)^0,f,c
  4364  00352C  500C               	movf	(??_tolower+3)^0,w,c
  4365  00352E  E10A               	bnz	i2u375_40
  4366  003530  0E1A               	movlw	26
  4367  003532  5C0B               	subwf	(??_tolower+2)^0,w,c
  4368  003534  A0D8               	btfss	status,0,c
  4369  003536  EF9F  F01A         	goto	i2u375_41
  4370  00353A  EFA2  F01A         	goto	i2u375_40
  4371  00353E                     i2u375_41:
  4372  00353E  0E01               	movlw	1
  4373  003540  EFA3  F01A         	goto	i2u376_40
  4374  003544                     i2u375_40:
  4375  003544  0E00               	movlw	0
  4376  003546                     i2u376_40:
  4377  003546  6E0D               	movwf	_tolower$1480^0,c
  4378  003548  6A0E               	clrf	(_tolower$1480+1)^0,c
  4379  00354A  500D               	movf	_tolower$1480^0,w,c
  4380  00354C  100E               	iorwf	(_tolower$1480+1)^0,w,c
  4381  00354E  B4D8               	btfsc	status,2,c
  4382  003550  EFAC  F01A         	goto	i2u377_41
  4383  003554  EFAE  F01A         	goto	i2u377_40
  4384  003558                     i2u377_41:
  4385  003558  EFB5  F01A         	goto	i2l1112
  4386  00355C                     i2u377_40:
  4387  00355C  0E20               	movlw	32
  4388  00355E  1007               	iorwf	tolower@c^0,w,c
  4389  003560  6E07               	movwf	?_tolower^0,c
  4390  003562  5008               	movf	(tolower@c+1)^0,w,c
  4391  003564  6E08               	movwf	(?_tolower+1)^0,c
  4392  003566  EFB9  F01A         	goto	i2l1117
  4393  00356A                     i2l1112:
  4394  00356A  C007  F007         	movff	tolower@c,?_tolower
  4395  00356E  C008  F008         	movff	tolower@c+1,?_tolower+1
  4396  003572                     i2l1117:
  4397  003572  0012               	return		;funcret
  4398  003574                     __end_of_tolower:
  4399                           	callstack 0
  4400                           
  4401 ;; *************** function _isupper *****************
  4402 ;; Defined at:
  4403 ;;		line 5 in file "C:\Program Files\Microchip\xc8\v2.20\pic\sources\c99\common\isupper.c"
  4404 ;; Parameters:    Size  Location     Type
  4405 ;;  c               2    0[COMRAM] int 
  4406 ;; Auto vars:     Size  Location     Type
  4407 ;;		None
  4408 ;; Return value:  Size  Location     Type
  4409 ;;                  2    0[COMRAM] int 
  4410 ;; Registers used:
  4411 ;;		wreg, status,2, status,0
  4412 ;; Tracked objects:
  4413 ;;		On entry : 0/0
  4414 ;;		On exit  : 0/0
  4415 ;;		Unchanged: 0/0
  4416 ;; Data sizes:     COMRAM   BANK0   BANK1   BANK2   BANK3   BANK4   BANK5   BANK6   BANK7
  4417 ;;      Params:         2       0       0       0       0       0       0       0       0
  4418 ;;      Locals:         0       0       0       0       0       0       0       0       0
  4419 ;;      Temps:          4       0       0       0       0       0       0       0       0
  4420 ;;      Totals:         6       0       0       0       0       0       0       0       0
  4421 ;;Total ram usage:        6 bytes
  4422 ;; Hardware stack levels used:    1
  4423 ;; This function calls:
  4424 ;;		Nothing
  4425 ;; This function is called by:
  4426 ;;		_efgtoa
  4427 ;;		_vfpfcnvrt
  4428 ;;		_tolower
  4429 ;; This function uses a non-reentrant model
  4430 ;;
  4431                           
  4432                           	psect	text14
  4433  0036FE                     __ptext14:
  4434                           	callstack 0
  4435  0036FE                     _isupper:
  4436                           	callstack 22
  4437  0036FE  0EBF               	movlw	191
  4438  003700  6E03               	movwf	??_isupper^0,c
  4439  003702  0EFF               	movlw	255
  4440  003704  6E04               	movwf	(??_isupper+1)^0,c
  4441  003706  C001  F005         	movff	isupper@c,??_isupper+2
  4442  00370A  C002  F006         	movff	isupper@c+1,??_isupper+3
  4443  00370E  5003               	movf	??_isupper^0,w,c
  4444  003710  2605               	addwf	(??_isupper+2)^0,f,c
  4445  003712  5004               	movf	(??_isupper+1)^0,w,c
  4446  003714  2206               	addwfc	(??_isupper+3)^0,f,c
  4447  003716  5006               	movf	(??_isupper+3)^0,w,c
  4448  003718  E10A               	bnz	i2u290_40
  4449  00371A  0E1A               	movlw	26
  4450  00371C  5C05               	subwf	(??_isupper+2)^0,w,c
  4451  00371E  A0D8               	btfss	status,0,c
  4452  003720  EF94  F01B         	goto	i2u290_41
  4453  003724  EF97  F01B         	goto	i2u290_40
  4454  003728                     i2u290_41:
  4455  003728  0E01               	movlw	1
  4456  00372A  EF98  F01B         	goto	i2u291_40
  4457  00372E                     i2u290_40:
  4458  00372E  0E00               	movlw	0
  4459  003730                     i2u291_40:
  4460  003730  6E01               	movwf	?_isupper^0,c
  4461  003732  6A02               	clrf	(?_isupper+1)^0,c
  4462  003734  0012               	return		;funcret
  4463  003736                     __end_of_isupper:
  4464                           	callstack 0
  4465                           
  4466 ;; *************** function _strcpy *****************
  4467 ;; Defined at:
  4468 ;;		line 3 in file "C:\Program Files\Microchip\xc8\v2.20\pic\sources\c99\common\strcpy.c"
  4469 ;; Parameters:    Size  Location     Type
  4470 ;;  dest            2    0[COMRAM] PTR unsigned char 
  4471 ;;		 -> dbuf(80), 
  4472 ;;  src             2    2[COMRAM] PTR const unsigned char 
  4473 ;;		 -> STR_7(4), STR_6(4), STR_3(4), STR_2(4), 
  4474 ;;		 -> dbuf(80), 
  4475 ;; Auto vars:     Size  Location     Type
  4476 ;;  d               2    8[COMRAM] PTR unsigned char 
  4477 ;;		 -> dbuf(80), 
  4478 ;;  s               2    6[COMRAM] PTR const unsigned char 
  4479 ;;		 -> STR_7(4), STR_6(4), STR_3(4), STR_2(4), 
  4480 ;;		 -> dbuf(80), 
  4481 ;; Return value:  Size  Location     Type
  4482 ;;                  2    0[COMRAM] PTR unsigned char 
  4483 ;; Registers used:
  4484 ;;		wreg, fsr1l, fsr1h, fsr2l, fsr2h, status,2, status,0, tblptrl, tblptrh, tblptru
  4485 ;; Tracked objects:
  4486 ;;		On entry : 0/0
  4487 ;;		On exit  : 0/0
  4488 ;;		Unchanged: 0/0
  4489 ;; Data sizes:     COMRAM   BANK0   BANK1   BANK2   BANK3   BANK4   BANK5   BANK6   BANK7
  4490 ;;      Params:         4       0       0       0       0       0       0       0       0
  4491 ;;      Locals:         4       0       0       0       0       0       0       0       0
  4492 ;;      Temps:          2       0       0       0       0       0       0       0       0
  4493 ;;      Totals:        10       0       0       0       0       0       0       0       0
  4494 ;;Total ram usage:       10 bytes
  4495 ;; Hardware stack levels used:    1
  4496 ;; This function calls:
  4497 ;;		Nothing
  4498 ;; This function is called by:
  4499 ;;		_efgtoa
  4500 ;; This function uses a non-reentrant model
  4501 ;;
  4502                           
  4503                           	psect	text15
  4504  003574                     __ptext15:
  4505                           	callstack 0
  4506  003574                     _strcpy:
  4507                           	callstack 22
  4508  003574  C003  F007         	movff	strcpy@src,strcpy@s
  4509  003578  C004  F008         	movff	strcpy@src+1,strcpy@s+1
  4510  00357C  C001  F009         	movff	strcpy@dest,strcpy@d
  4511  003580  C002  F00A         	movff	strcpy@dest+1,strcpy@d+1
  4512  003584                     i2l3406:
  4513  003584  5007               	movf	strcpy@s^0,w,c
  4514  003586  6E05               	movwf	??_strcpy^0,c
  4515  003588  5008               	movf	(strcpy@s+1)^0,w,c
  4516  00358A  6E06               	movwf	(??_strcpy+1)^0,c
  4517  00358C  4A07               	infsnz	strcpy@s^0,f,c
  4518  00358E  2A08               	incf	(strcpy@s+1)^0,f,c
  4519  003590  C005  FFF6         	movff	??_strcpy,tblptrl
  4520  003594  C006  FFF7         	movff	??_strcpy+1,tblptrh
  4521  003598  6AF8               	clrf	tblptru,c
  4522  00359A  C009  FFD9         	movff	strcpy@d,fsr2l
  4523  00359E  C00A  FFDA         	movff	strcpy@d+1,fsr2h
  4524  0035A2  4A09               	infsnz	strcpy@d^0,f,c
  4525  0035A4  2A0A               	incf	(strcpy@d+1)^0,f,c
  4526  0035A6  0E07               	movlw	(high __ramtop+-1)
  4527  0035A8  64F7               	cpfsgt	tblptrh,c
  4528  0035AA  D003               	bra	i2u373_47
  4529  0035AC  0008               	tblrd		*
  4530  0035AE  50F5               	movf	tablat,w,c
  4531  0035B0  D005               	bra	i2u373_40
  4532  0035B2                     i2u373_47:
  4533  0035B2  CFF6 FFE1          	movff	tblptrl,fsr1l
  4534  0035B6  CFF7 FFE2          	movff	tblptrh,fsr1h
  4535  0035BA  50E7               	movf	indf1,w,c
  4536  0035BC                     i2u373_40:
  4537  0035BC  6EDF               	movwf	indf2,c
  4538  0035BE  50DF               	movf	indf2,w,c
  4539  0035C0  A4D8               	btfss	status,2,c
  4540  0035C2  EFE5  F01A         	goto	i2u374_41
  4541  0035C6  EFE7  F01A         	goto	i2u374_40
  4542  0035CA                     i2u374_41:
  4543  0035CA  EFC2  F01A         	goto	i2l3406
  4544  0035CE                     i2u374_40:
  4545  0035CE  0012               	return		;funcret
  4546  0035D0                     __end_of_strcpy:
  4547                           	callstack 0
  4548                           
  4549 ;; *************** function _pad *****************
  4550 ;; Defined at:
  4551 ;;		line 72 in file "C:\Program Files\Microchip\xc8\v2.20\pic\sources\c99\common\doprnt.c"
  4552 ;; Parameters:    Size  Location     Type
  4553 ;;  fp              2   16[COMRAM] PTR struct _IO_FILE
  4554 ;;		 -> sprintf@f(6), 
  4555 ;;  buf             2   18[COMRAM] PTR unsigned char 
  4556 ;;		 -> dbuf(80), 
  4557 ;;  p               2   20[COMRAM] int 
  4558 ;; Auto vars:     Size  Location     Type
  4559 ;;  w               2   25[COMRAM] int 
  4560 ;;  i               2   23[COMRAM] int 
  4561 ;; Return value:  Size  Location     Type
  4562 ;;                  2   16[COMRAM] int 
  4563 ;; Registers used:
  4564 ;;		wreg, fsr1l, fsr1h, fsr2l, fsr2h, status,2, status,0, cstack
  4565 ;; Tracked objects:
  4566 ;;		On entry : 0/0
  4567 ;;		On exit  : 0/0
  4568 ;;		Unchanged: 0/0
  4569 ;; Data sizes:     COMRAM   BANK0   BANK1   BANK2   BANK3   BANK4   BANK5   BANK6   BANK7
  4570 ;;      Params:         6       0       0       0       0       0       0       0       0
  4571 ;;      Locals:         4       0       0       0       0       0       0       0       0
  4572 ;;      Temps:          1       0       0       0       0       0       0       0       0
  4573 ;;      Totals:        11       0       0       0       0       0       0       0       0
  4574 ;;Total ram usage:       11 bytes
  4575 ;; Hardware stack levels used:    1
  4576 ;; Hardware stack levels required when called:    3
  4577 ;; This function calls:
  4578 ;;		_fputc
  4579 ;;		_fputs
  4580 ;;		_strlen
  4581 ;; This function is called by:
  4582 ;;		_efgtoa
  4583 ;; This function uses a non-reentrant model
  4584 ;;
  4585                           
  4586                           	psect	text16
  4587  003082                     __ptext16:
  4588                           	callstack 0
  4589  003082                     _pad:
  4590                           	callstack 19
  4591  003082                     
  4592                           ;C:\Program Files\Microchip\xc8\v2.20\pic\sources\c99\common\doprnt.c: 72: static int pa
      +                          d(FILE *fp, char *buf, int p);C:\Program Files\Microchip\xc8\v2.20\pic\sources\c99\commo
      +                          n\doprnt.c: 73: {;C:\Program Files\Microchip\xc8\v2.20\pic\sources\c99\common\doprnt.c: 
      +                          74:     int i, w;;C:\Program Files\Microchip\xc8\v2.20\pic\sources\c99\common\doprnt.c: 
      +                          77:     if (flags & (1 << 0)) {
  4593  003082  0100               	movlb	0	; () banked
  4594  003084  A1CA               	btfss	_flags& (0+255),0,b
  4595  003086  EF47  F018         	goto	i2u362_41
  4596  00308A  EF49  F018         	goto	i2u362_40
  4597  00308E                     i2u362_41:
  4598  00308E  EF53  F018         	goto	i2l3364
  4599  003092                     i2u362_40:
  4600  003092                     
  4601                           ; BSR set to: 0
  4602                           ;C:\Program Files\Microchip\xc8\v2.20\pic\sources\c99\common\doprnt.c: 78:         fputs
      +                          ((const char *)buf, fp);
  4603  003092  C013  F00A         	movff	pad@buf,fputs@s
  4604  003096  C014  F00B         	movff	pad@buf+1,fputs@s+1
  4605  00309A  C011  F00C         	movff	pad@fp,fputs@fp
  4606  00309E  C012  F00D         	movff	pad@fp+1,fputs@fp+1
  4607  0030A2  EC5D  F01B         	call	_fputs	;wreg free
  4608  0030A6                     i2l3364:
  4609                           
  4610                           ;C:\Program Files\Microchip\xc8\v2.20\pic\sources\c99\common\doprnt.c: 82:     w = (p < 
      +                          0) ? 0 : p;
  4611  0030A6  BE16               	btfsc	(pad@p+1)^0,7,c
  4612  0030A8  EF58  F018         	goto	i2u363_41
  4613  0030AC  EF5A  F018         	goto	i2u363_40
  4614  0030B0                     i2u363_41:
  4615  0030B0  EF60  F018         	goto	i2l3368
  4616  0030B4                     i2u363_40:
  4617  0030B4  C015  F01A         	movff	pad@p,pad@w
  4618  0030B8  C016  F01B         	movff	pad@p+1,pad@w+1
  4619  0030BC  EF64  F018         	goto	i2l849
  4620  0030C0                     i2l3368:
  4621  0030C0  0E00               	movlw	0
  4622  0030C2  6E1B               	movwf	(pad@w+1)^0,c
  4623  0030C4  0E00               	movlw	0
  4624  0030C6  6E1A               	movwf	pad@w^0,c
  4625  0030C8                     i2l849:
  4626                           
  4627                           ;C:\Program Files\Microchip\xc8\v2.20\pic\sources\c99\common\doprnt.c: 83:     i = 0;
  4628  0030C8  0E00               	movlw	0
  4629  0030CA  6E19               	movwf	(pad@i+1)^0,c
  4630  0030CC  0E00               	movlw	0
  4631  0030CE  6E18               	movwf	pad@i^0,c
  4632                           
  4633                           ;C:\Program Files\Microchip\xc8\v2.20\pic\sources\c99\common\doprnt.c: 84:     while (i 
      +                          < w) {
  4634  0030D0  EF76  F018         	goto	i2l3374
  4635  0030D4                     i2l3370:
  4636                           
  4637                           ;C:\Program Files\Microchip\xc8\v2.20\pic\sources\c99\common\doprnt.c: 85:         fputc
      +                          (' ', fp);
  4638  0030D4  0E00               	movlw	0
  4639  0030D6  6E02               	movwf	(fputc@c+1)^0,c
  4640  0030D8  0E20               	movlw	32
  4641  0030DA  6E01               	movwf	fputc@c^0,c
  4642  0030DC  C011  F003         	movff	pad@fp,fputc@fp
  4643  0030E0  C012  F004         	movff	pad@fp+1,fputc@fp+1
  4644  0030E4  ECDC  F017         	call	_fputc	;wreg free
  4645  0030E8                     
  4646                           ;C:\Program Files\Microchip\xc8\v2.20\pic\sources\c99\common\doprnt.c: 86:         ++i;
  4647  0030E8  4A18               	infsnz	pad@i^0,f,c
  4648  0030EA  2A19               	incf	(pad@i+1)^0,f,c
  4649  0030EC                     i2l3374:
  4650                           
  4651                           ;C:\Program Files\Microchip\xc8\v2.20\pic\sources\c99\common\doprnt.c: 84:     while (i 
      +                          < w) {
  4652  0030EC  501A               	movf	pad@w^0,w,c
  4653  0030EE  5C18               	subwf	pad@i^0,w,c
  4654  0030F0  5019               	movf	(pad@i+1)^0,w,c
  4655  0030F2  0A80               	xorlw	128
  4656  0030F4  6E17               	movwf	??_pad^0,c
  4657  0030F6  501B               	movf	(pad@w+1)^0,w,c
  4658  0030F8  0A80               	xorlw	128
  4659  0030FA  5817               	subwfb	??_pad^0,w,c
  4660  0030FC  A0D8               	btfss	status,0,c
  4661  0030FE  EF83  F018         	goto	i2u364_41
  4662  003102  EF85  F018         	goto	i2u364_40
  4663  003106                     i2u364_41:
  4664  003106  EF6A  F018         	goto	i2l3370
  4665  00310A                     i2u364_40:
  4666  00310A                     
  4667                           ;C:\Program Files\Microchip\xc8\v2.20\pic\sources\c99\common\doprnt.c: 90:     if (!(fla
      +                          gs & (1 << 0))) {
  4668  00310A  0100               	movlb	0	; () banked
  4669  00310C  B1CA               	btfsc	_flags& (0+255),0,b
  4670  00310E  EF8B  F018         	goto	i2u365_41
  4671  003112  EF8D  F018         	goto	i2u365_40
  4672  003116                     i2u365_41:
  4673  003116  EF97  F018         	goto	i2l3378
  4674  00311A                     i2u365_40:
  4675  00311A                     
  4676                           ; BSR set to: 0
  4677                           ;C:\Program Files\Microchip\xc8\v2.20\pic\sources\c99\common\doprnt.c: 91:         fputs
      +                          ((const char *)buf, fp);
  4678  00311A  C013  F00A         	movff	pad@buf,fputs@s
  4679  00311E  C014  F00B         	movff	pad@buf+1,fputs@s+1
  4680  003122  C011  F00C         	movff	pad@fp,fputs@fp
  4681  003126  C012  F00D         	movff	pad@fp+1,fputs@fp+1
  4682  00312A  EC5D  F01B         	call	_fputs	;wreg free
  4683  00312E                     i2l3378:
  4684                           
  4685                           ;C:\Program Files\Microchip\xc8\v2.20\pic\sources\c99\common\doprnt.c: 94:     return st
      +                          rlen(buf) + w;
  4686  00312E  C013  F001         	movff	pad@buf,strlen@s
  4687  003132  C014  F002         	movff	pad@buf+1,strlen@s+1
  4688  003136  ECD3  F01B         	call	_strlen	;wreg free
  4689  00313A  501A               	movf	pad@w^0,w,c
  4690  00313C  2401               	addwf	?_strlen^0,w,c
  4691  00313E  6E11               	movwf	?_pad^0,c
  4692  003140  501B               	movf	(pad@w+1)^0,w,c
  4693  003142  2002               	addwfc	(?_strlen+1)^0,w,c
  4694  003144  6E12               	movwf	(?_pad+1)^0,c
  4695  003146  0012               	return		;funcret
  4696  003148                     __end_of_pad:
  4697                           	callstack 0
  4698                           
  4699 ;; *************** function _strlen *****************
  4700 ;; Defined at:
  4701 ;;		line 5 in file "C:\Program Files\Microchip\xc8\v2.20\pic\sources\c99\common\strlen.c"
  4702 ;; Parameters:    Size  Location     Type
  4703 ;;  s               2    0[COMRAM] PTR const unsigned char 
  4704 ;;		 -> dbuf(80), 
  4705 ;; Auto vars:     Size  Location     Type
  4706 ;;  a               2    2[COMRAM] PTR const unsigned char 
  4707 ;;		 -> dbuf(80), 
  4708 ;; Return value:  Size  Location     Type
  4709 ;;                  2    0[COMRAM] unsigned int 
  4710 ;; Registers used:
  4711 ;;		wreg, fsr2l, fsr2h, status,2, status,0
  4712 ;; Tracked objects:
  4713 ;;		On entry : 0/0
  4714 ;;		On exit  : 0/0
  4715 ;;		Unchanged: 0/0
  4716 ;; Data sizes:     COMRAM   BANK0   BANK1   BANK2   BANK3   BANK4   BANK5   BANK6   BANK7
  4717 ;;      Params:         2       0       0       0       0       0       0       0       0
  4718 ;;      Locals:         2       0       0       0       0       0       0       0       0
  4719 ;;      Temps:          0       0       0       0       0       0       0       0       0
  4720 ;;      Totals:         4       0       0       0       0       0       0       0       0
  4721 ;;Total ram usage:        4 bytes
  4722 ;; Hardware stack levels used:    1
  4723 ;; This function calls:
  4724 ;;		Nothing
  4725 ;; This function is called by:
  4726 ;;		_pad
  4727 ;; This function uses a non-reentrant model
  4728 ;;
  4729                           
  4730                           	psect	text17
  4731  0037A6                     __ptext17:
  4732                           	callstack 0
  4733  0037A6                     _strlen:
  4734                           	callstack 21
  4735  0037A6  C001  F003         	movff	strlen@s,strlen@a
  4736  0037AA  C002  F004         	movff	strlen@s+1,strlen@a+1
  4737  0037AE  EFDB  F01B         	goto	i2l2900
  4738  0037B2                     i2l2898:
  4739  0037B2  4A01               	infsnz	strlen@s^0,f,c
  4740  0037B4  2A02               	incf	(strlen@s+1)^0,f,c
  4741  0037B6                     i2l2900:
  4742  0037B6  C001  FFD9         	movff	strlen@s,fsr2l
  4743  0037BA  C002  FFDA         	movff	strlen@s+1,fsr2h
  4744  0037BE  50DF               	movf	indf2,w,c
  4745  0037C0  A4D8               	btfss	status,2,c
  4746  0037C2  EFE5  F01B         	goto	i2u289_41
  4747  0037C6  EFE7  F01B         	goto	i2u289_40
  4748  0037CA                     i2u289_41:
  4749  0037CA  EFD9  F01B         	goto	i2l2898
  4750  0037CE                     i2u289_40:
  4751  0037CE  5003               	movf	strlen@a^0,w,c
  4752  0037D0  5C01               	subwf	strlen@s^0,w,c
  4753  0037D2  6E01               	movwf	?_strlen^0,c
  4754  0037D4  5004               	movf	(strlen@a+1)^0,w,c
  4755  0037D6  5802               	subwfb	(strlen@s+1)^0,w,c
  4756  0037D8  6E02               	movwf	(?_strlen+1)^0,c
  4757  0037DA  0012               	return		;funcret
  4758  0037DC                     __end_of_strlen:
  4759                           	callstack 0
  4760                           
  4761 ;; *************** function _fputs *****************
  4762 ;; Defined at:
  4763 ;;		line 8 in file "C:\Program Files\Microchip\xc8\v2.20\pic\sources\c99\common\nf_fputs.c"
  4764 ;; Parameters:    Size  Location     Type
  4765 ;;  s               2    9[COMRAM] PTR const unsigned char 
  4766 ;;		 -> dbuf(80), 
  4767 ;;  fp              2   11[COMRAM] PTR struct _IO_FILE
  4768 ;;		 -> sprintf@f(6), 
  4769 ;; Auto vars:     Size  Location     Type
  4770 ;;  i               2   14[COMRAM] int 
  4771 ;;  c               1   13[COMRAM] unsigned char 
  4772 ;; Return value:  Size  Location     Type
  4773 ;;                  2    9[COMRAM] int 
  4774 ;; Registers used:
  4775 ;;		wreg, fsr1l, fsr1h, fsr2l, fsr2h, status,2, status,0, cstack
  4776 ;; Tracked objects:
  4777 ;;		On entry : 0/0
  4778 ;;		On exit  : 0/0
  4779 ;;		Unchanged: 0/0
  4780 ;; Data sizes:     COMRAM   BANK0   BANK1   BANK2   BANK3   BANK4   BANK5   BANK6   BANK7
  4781 ;;      Params:         4       0       0       0       0       0       0       0       0
  4782 ;;      Locals:         3       0       0       0       0       0       0       0       0
  4783 ;;      Temps:          0       0       0       0       0       0       0       0       0
  4784 ;;      Totals:         7       0       0       0       0       0       0       0       0
  4785 ;;Total ram usage:        7 bytes
  4786 ;; Hardware stack levels used:    1
  4787 ;; Hardware stack levels required when called:    2
  4788 ;; This function calls:
  4789 ;;		_fputc
  4790 ;; This function is called by:
  4791 ;;		_pad
  4792 ;; This function uses a non-reentrant model
  4793 ;;
  4794                           
  4795                           	psect	text18
  4796  0036BA                     __ptext18:
  4797                           	callstack 0
  4798  0036BA                     _fputs:
  4799                           	callstack 19
  4800  0036BA  0E00               	movlw	0
  4801  0036BC  6E10               	movwf	(fputs@i+1)^0,c
  4802  0036BE  0E00               	movlw	0
  4803  0036C0  6E0F               	movwf	fputs@i^0,c
  4804  0036C2  EF6E  F01B         	goto	i2l2894
  4805  0036C6                     i2l2890:
  4806  0036C6  C00E  F001         	movff	fputs@c,fputc@c
  4807  0036CA  6A02               	clrf	(fputc@c+1)^0,c
  4808  0036CC  C00C  F003         	movff	fputs@fp,fputc@fp
  4809  0036D0  C00D  F004         	movff	fputs@fp+1,fputc@fp+1
  4810  0036D4  ECDC  F017         	call	_fputc	;wreg free
  4811  0036D8  4A0F               	infsnz	fputs@i^0,f,c
  4812  0036DA  2A10               	incf	(fputs@i+1)^0,f,c
  4813  0036DC                     i2l2894:
  4814  0036DC  500F               	movf	fputs@i^0,w,c
  4815  0036DE  240A               	addwf	fputs@s^0,w,c
  4816  0036E0  6ED9               	movwf	fsr2l,c
  4817  0036E2  5010               	movf	(fputs@i+1)^0,w,c
  4818  0036E4  200B               	addwfc	(fputs@s+1)^0,w,c
  4819  0036E6  6EDA               	movwf	fsr2h,c
  4820  0036E8  50DF               	movf	indf2,w,c
  4821  0036EA  6E0E               	movwf	fputs@c^0,c
  4822  0036EC  500E               	movf	fputs@c^0,w,c
  4823  0036EE  A4D8               	btfss	status,2,c
  4824  0036F0  EF7C  F01B         	goto	i2u288_41
  4825  0036F4  EF7E  F01B         	goto	i2u288_40
  4826  0036F8                     i2u288_41:
  4827  0036F8  EF63  F01B         	goto	i2l2890
  4828  0036FC                     i2u288_40:
  4829  0036FC  0012               	return		;funcret
  4830  0036FE                     __end_of_fputs:
  4831                           	callstack 0
  4832                           
  4833 ;; *************** function _fputc *****************
  4834 ;; Defined at:
  4835 ;;		line 8 in file "C:\Program Files\Microchip\xc8\v2.20\pic\sources\c99\common\nf_fputc.c"
  4836 ;; Parameters:    Size  Location     Type
  4837 ;;  c               2    0[COMRAM] int 
  4838 ;;  fp              2    2[COMRAM] PTR struct _IO_FILE
  4839 ;;		 -> sprintf@f(6), 
  4840 ;; Auto vars:     Size  Location     Type
  4841 ;;		None
  4842 ;; Return value:  Size  Location     Type
  4843 ;;                  2    0[COMRAM] int 
  4844 ;; Registers used:
  4845 ;;		wreg, fsr1l, fsr1h, fsr2l, fsr2h, status,2, status,0, cstack
  4846 ;; Tracked objects:
  4847 ;;		On entry : 0/0
  4848 ;;		On exit  : 0/0
  4849 ;;		Unchanged: 0/0
  4850 ;; Data sizes:     COMRAM   BANK0   BANK1   BANK2   BANK3   BANK4   BANK5   BANK6   BANK7
  4851 ;;      Params:         4       0       0       0       0       0       0       0       0
  4852 ;;      Locals:         0       0       0       0       0       0       0       0       0
  4853 ;;      Temps:          5       0       0       0       0       0       0       0       0
  4854 ;;      Totals:         9       0       0       0       0       0       0       0       0
  4855 ;;Total ram usage:        9 bytes
  4856 ;; Hardware stack levels used:    1
  4857 ;; Hardware stack levels required when called:    1
  4858 ;; This function calls:
  4859 ;;		_putch
  4860 ;; This function is called by:
  4861 ;;		_pad
  4862 ;;		_vfpfcnvrt
  4863 ;;		_fputs
  4864 ;; This function uses a non-reentrant model
  4865 ;;
  4866                           
  4867                           	psect	text19
  4868  002FB8                     __ptext19:
  4869                           	callstack 0
  4870  002FB8                     _fputc:
  4871                           	callstack 22
  4872  002FB8  5003               	movf	fputc@fp^0,w,c
  4873  002FBA  1004               	iorwf	(fputc@fp+1)^0,w,c
  4874  002FBC  B4D8               	btfsc	status,2,c
  4875  002FBE  EFE3  F017         	goto	i2u245_41
  4876  002FC2  EFE5  F017         	goto	i2u245_40
  4877  002FC6                     i2u245_41:
  4878  002FC6  EFEE  F017         	goto	i2l2676
  4879  002FCA                     i2u245_40:
  4880  002FCA  5003               	movf	fputc@fp^0,w,c
  4881  002FCC  1004               	iorwf	(fputc@fp+1)^0,w,c
  4882  002FCE  A4D8               	btfss	status,2,c
  4883  002FD0  EFEC  F017         	goto	i2u246_41
  4884  002FD4  EFEE  F017         	goto	i2u246_40
  4885  002FD8                     i2u246_41:
  4886  002FD8  EFF3  F017         	goto	i2l2678
  4887  002FDC                     i2u246_40:
  4888  002FDC                     i2l2676:
  4889  002FDC  5001               	movf	fputc@c^0,w,c
  4890  002FDE  EC90  F01C         	call	_putch
  4891  002FE2  EF40  F018         	goto	i2l1075
  4892  002FE6                     i2l2678:
  4893  002FE6  EE20 F004          	lfsr	2,4
  4894  002FEA  5003               	movf	fputc@fp^0,w,c
  4895  002FEC  26D9               	addwf	fsr2l,f,c
  4896  002FEE  5004               	movf	(fputc@fp+1)^0,w,c
  4897  002FF0  22DA               	addwfc	fsr2h,f,c
  4898  002FF2  50DE               	movf	postinc2,w,c
  4899  002FF4  10DE               	iorwf	postinc2,w,c
  4900  002FF6  B4D8               	btfsc	status,2,c
  4901  002FF8  EF00  F018         	goto	i2u247_41
  4902  002FFC  EF02  F018         	goto	i2u247_40
  4903  003000                     i2u247_41:
  4904  003000  EF1D  F018         	goto	i2l2682
  4905  003004                     i2u247_40:
  4906  003004  EE20 F004          	lfsr	2,4
  4907  003008  5003               	movf	fputc@fp^0,w,c
  4908  00300A  26D9               	addwf	fsr2l,f,c
  4909  00300C  5004               	movf	(fputc@fp+1)^0,w,c
  4910  00300E  22DA               	addwfc	fsr2h,f,c
  4911  003010  EE10 F002          	lfsr	1,2
  4912  003014  5003               	movf	fputc@fp^0,w,c
  4913  003016  26E1               	addwf	fsr1l,f,c
  4914  003018  5004               	movf	(fputc@fp+1)^0,w,c
  4915  00301A  22E2               	addwfc	fsr1h,f,c
  4916  00301C  50DE               	movf	postinc2,w,c
  4917  00301E  5CE6               	subwf	postinc1,w,c
  4918  003020  50E6               	movf	postinc1,w,c
  4919  003022  0A80               	xorlw	128
  4920  003024  6E09               	movwf	(??_fputc+4)^0,c
  4921  003026  50DE               	movf	postinc2,w,c
  4922  003028  0A80               	xorlw	128
  4923  00302A  5809               	subwfb	(??_fputc+4)^0,w,c
  4924  00302C  B0D8               	btfsc	status,0,c
  4925  00302E  EF1B  F018         	goto	i2u248_41
  4926  003032  EF1D  F018         	goto	i2u248_40
  4927  003036                     i2u248_41:
  4928  003036  EF40  F018         	goto	i2l1075
  4929  00303A                     i2u248_40:
  4930  00303A                     i2l2682:
  4931  00303A  EE20 F002          	lfsr	2,2
  4932  00303E  5003               	movf	fputc@fp^0,w,c
  4933  003040  26D9               	addwf	fsr2l,f,c
  4934  003042  5004               	movf	(fputc@fp+1)^0,w,c
  4935  003044  22DA               	addwfc	fsr2h,f,c
  4936  003046  CFDE F005          	movff	postinc2,??_fputc
  4937  00304A  CFDD F006          	movff	postdec2,??_fputc+1
  4938  00304E  C003  FFD9         	movff	fputc@fp,fsr2l
  4939  003052  C004  FFDA         	movff	fputc@fp+1,fsr2h
  4940  003056  CFDE F007          	movff	postinc2,??_fputc+2
  4941  00305A  CFDD F008          	movff	postdec2,??_fputc+3
  4942  00305E  5005               	movf	??_fputc^0,w,c
  4943  003060  2407               	addwf	(??_fputc+2)^0,w,c
  4944  003062  6ED9               	movwf	fsr2l,c
  4945  003064  5006               	movf	(??_fputc+1)^0,w,c
  4946  003066  2008               	addwfc	(??_fputc+3)^0,w,c
  4947  003068  6EDA               	movwf	fsr2h,c
  4948  00306A  C001  FFDF         	movff	fputc@c,indf2
  4949  00306E  EE20 F002          	lfsr	2,2
  4950  003072  5003               	movf	fputc@fp^0,w,c
  4951  003074  26D9               	addwf	fsr2l,f,c
  4952  003076  5004               	movf	(fputc@fp+1)^0,w,c
  4953  003078  22DA               	addwfc	fsr2h,f,c
  4954  00307A  2ADE               	incf	postinc2,f,c
  4955  00307C  0E00               	movlw	0
  4956  00307E  22DD               	addwfc	postdec2,f,c
  4957  003080                     i2l1075:
  4958  003080  0012               	return		;funcret
  4959  003082                     __end_of_fputc:
  4960                           	callstack 0
  4961                           
  4962 ;; *************** function _putch *****************
  4963 ;; Defined at:
  4964 ;;		line 7 in file "C:\Program Files\Microchip\xc8\v2.20\pic\sources\c99\common\putch.c"
  4965 ;; Parameters:    Size  Location     Type
  4966 ;;  c               1    wreg     unsigned char 
  4967 ;; Auto vars:     Size  Location     Type
  4968 ;;  c               1    0[COMRAM] unsigned char 
  4969 ;; Return value:  Size  Location     Type
  4970 ;;                  1    wreg      void 
  4971 ;; Registers used:
  4972 ;;		wreg
  4973 ;; Tracked objects:
  4974 ;;		On entry : 0/0
  4975 ;;		On exit  : 0/0
  4976 ;;		Unchanged: 0/0
  4977 ;; Data sizes:     COMRAM   BANK0   BANK1   BANK2   BANK3   BANK4   BANK5   BANK6   BANK7
  4978 ;;      Params:         0       0       0       0       0       0       0       0       0
  4979 ;;      Locals:         0       0       0       0       0       0       0       0       0
  4980 ;;      Temps:          0       0       0       0       0       0       0       0       0
  4981 ;;      Totals:         0       0       0       0       0       0       0       0       0
  4982 ;;Total ram usage:        0 bytes
  4983 ;; Hardware stack levels used:    1
  4984 ;; This function calls:
  4985 ;;		Nothing
  4986 ;; This function is called by:
  4987 ;;		_fputc
  4988 ;; This function uses a non-reentrant model
  4989 ;;
  4990                           
  4991                           	psect	text20
  4992  003920                     __ptext20:
  4993                           	callstack 0
  4994  003920                     _putch:
  4995                           	callstack 22
  4996  003920  0012               	return		;funcret
  4997  003922                     __end_of_putch:
  4998                           	callstack 0
  4999                           
  5000 ;; *************** function _floorf *****************
  5001 ;; Defined at:
  5002 ;;		line 3 in file "C:\Program Files\Microchip\xc8\v2.20\pic\sources\c99\common\floorf.c"
  5003 ;; Parameters:    Size  Location     Type
  5004 ;;  x               4   25[COMRAM] float 
  5005 ;; Auto vars:     Size  Location     Type
  5006 ;;  u               4   41[COMRAM] struct .
  5007 ;;  m               4   35[COMRAM] unsigned long 
  5008 ;;  e               2   39[COMRAM] int 
  5009 ;; Return value:  Size  Location     Type
  5010 ;;                  4   25[COMRAM] float 
  5011 ;; Registers used:
  5012 ;;		wreg, status,2, status,0
  5013 ;; Tracked objects:
  5014 ;;		On entry : 0/0
  5015 ;;		On exit  : 0/0
  5016 ;;		Unchanged: 0/0
  5017 ;; Data sizes:     COMRAM   BANK0   BANK1   BANK2   BANK3   BANK4   BANK5   BANK6   BANK7
  5018 ;;      Params:         4       0       0       0       0       0       0       0       0
  5019 ;;      Locals:        10       0       0       0       0       0       0       0       0
  5020 ;;      Temps:          6       0       0       0       0       0       0       0       0
  5021 ;;      Totals:        20       0       0       0       0       0       0       0       0
  5022 ;;Total ram usage:       20 bytes
  5023 ;; Hardware stack levels used:    1
  5024 ;; This function calls:
  5025 ;;		Nothing
  5026 ;; This function is called by:
  5027 ;;		_efgtoa
  5028 ;; This function uses a non-reentrant model
  5029 ;;
  5030                           
  5031                           	psect	text21
  5032  00257C                     __ptext21:
  5033                           	callstack 0
  5034  00257C                     _floorf:
  5035                           	callstack 22
  5036  00257C  C0B8  F02A         	movff	floorf@F524,floorf@u
  5037  002580  C0B9  F02B         	movff	floorf@F524+1,floorf@u+1
  5038  002584  C0BA  F02C         	movff	floorf@F524+2,floorf@u+2
  5039  002588  C0BB  F02D         	movff	floorf@F524+3,floorf@u+3
  5040  00258C  C01A  F02A         	movff	floorf@x,floorf@u
  5041  002590  C01B  F02B         	movff	floorf@x+1,floorf@u+1
  5042  002594  C01C  F02C         	movff	floorf@x+2,floorf@u+2
  5043  002598  C01D  F02D         	movff	floorf@x+3,floorf@u+3
  5044  00259C  0E81               	movlw	129
  5045  00259E  6E1E               	movwf	??_floorf^0,c
  5046  0025A0  0EFF               	movlw	255
  5047  0025A2  6E1F               	movwf	(??_floorf+1)^0,c
  5048  0025A4  C02A  F020         	movff	floorf@u,??_floorf+2
  5049  0025A8  C02B  F021         	movff	floorf@u+1,??_floorf+3
  5050  0025AC  C02C  F022         	movff	floorf@u+2,??_floorf+4
  5051  0025B0  C02D  F023         	movff	floorf@u+3,??_floorf+5
  5052  0025B4  0E18               	movlw	24
  5053  0025B6  EFE2  F012         	goto	i2u378_40
  5054  0025BA                     i2u378_45:
  5055  0025BA  90D8               	bcf	status,0,c
  5056  0025BC  3223               	rrcf	(??_floorf+5)^0,f,c
  5057  0025BE  3222               	rrcf	(??_floorf+4)^0,f,c
  5058  0025C0  3221               	rrcf	(??_floorf+3)^0,f,c
  5059  0025C2  3220               	rrcf	(??_floorf+2)^0,f,c
  5060  0025C4                     i2u378_40:
  5061  0025C4  2EE8               	decfsz	wreg,f,c
  5062  0025C6  EFDD  F012         	goto	i2u378_45
  5063  0025CA  5020               	movf	(??_floorf+2)^0,w,c
  5064  0025CC  241E               	addwf	??_floorf^0,w,c
  5065  0025CE  6E28               	movwf	floorf@e^0,c
  5066  0025D0  0E00               	movlw	0
  5067  0025D2  201F               	addwfc	(??_floorf+1)^0,w,c
  5068  0025D4  6E29               	movwf	(floorf@e+1)^0,c
  5069  0025D6  BE29               	btfsc	(floorf@e+1)^0,7,c
  5070  0025D8  EFF7  F012         	goto	i2u379_41
  5071  0025DC  5029               	movf	(floorf@e+1)^0,w,c
  5072  0025DE  E109               	bnz	i2u379_40
  5073  0025E0  0E17               	movlw	23
  5074  0025E2  5C28               	subwf	floorf@e^0,w,c
  5075  0025E4  A0D8               	btfss	status,0,c
  5076  0025E6  EFF7  F012         	goto	i2u379_41
  5077  0025EA  EFF9  F012         	goto	i2u379_40
  5078  0025EE                     i2u379_41:
  5079  0025EE  EF03  F013         	goto	i2l3424
  5080  0025F2                     i2u379_40:
  5081  0025F2                     i2l3422:
  5082  0025F2  C01A  F01A         	movff	floorf@x,?_floorf
  5083  0025F6  C01B  F01B         	movff	floorf@x+1,?_floorf+1
  5084  0025FA  C01C  F01C         	movff	floorf@x+2,?_floorf+2
  5085  0025FE  C01D  F01D         	movff	floorf@x+3,?_floorf+3
  5086  002602  EFC6  F013         	goto	i2l1036
  5087  002606                     i2l3424:
  5088  002606  BE29               	btfsc	(floorf@e+1)^0,7,c
  5089  002608  EF08  F013         	goto	i2u380_41
  5090  00260C  EF0A  F013         	goto	i2u380_40
  5091  002610                     i2u380_41:
  5092  002610  EF7A  F013         	goto	i2l3434
  5093  002614                     i2u380_40:
  5094  002614  C028  F01E         	movff	floorf@e,??_floorf
  5095  002618  0EFF               	movlw	255
  5096  00261A  6E1F               	movwf	(??_floorf+1)^0,c
  5097  00261C  0EFF               	movlw	255
  5098  00261E  6E20               	movwf	(??_floorf+2)^0,c
  5099  002620  0E7F               	movlw	127
  5100  002622  6E21               	movwf	(??_floorf+3)^0,c
  5101  002624  0E00               	movlw	0
  5102  002626  6E22               	movwf	(??_floorf+4)^0,c
  5103  002628                     i2u381_45:
  5104  002628  661E               	tstfsz	??_floorf^0,c
  5105  00262A  EF19  F013         	goto	i2u381_46
  5106  00262E  EF21  F013         	goto	i2u381_47
  5107  002632                     i2u381_46:
  5108  002632  3422               	rlcf	(??_floorf+4)^0,w,c
  5109  002634  3222               	rrcf	(??_floorf+4)^0,f,c
  5110  002636  3221               	rrcf	(??_floorf+3)^0,f,c
  5111  002638  3220               	rrcf	(??_floorf+2)^0,f,c
  5112  00263A  321F               	rrcf	(??_floorf+1)^0,f,c
  5113  00263C  2E1E               	decfsz	??_floorf^0,f,c
  5114  00263E  EF14  F013         	goto	i2u381_45
  5115  002642                     i2u381_47:
  5116  002642  C01F  F024         	movff	??_floorf+1,floorf@m
  5117  002646  C020  F025         	movff	??_floorf+2,floorf@m+1
  5118  00264A  C021  F026         	movff	??_floorf+3,floorf@m+2
  5119  00264E  C022  F027         	movff	??_floorf+4,floorf@m+3
  5120  002652  5024               	movf	floorf@m^0,w,c
  5121  002654  142A               	andwf	floorf@u^0,w,c
  5122  002656  6E1E               	movwf	??_floorf^0,c
  5123  002658  5025               	movf	(floorf@m+1)^0,w,c
  5124  00265A  142B               	andwf	(floorf@u+1)^0,w,c
  5125  00265C  6E1F               	movwf	(??_floorf+1)^0,c
  5126  00265E  5026               	movf	(floorf@m+2)^0,w,c
  5127  002660  142C               	andwf	(floorf@u+2)^0,w,c
  5128  002662  6E20               	movwf	(??_floorf+2)^0,c
  5129  002664  5027               	movf	(floorf@m+3)^0,w,c
  5130  002666  142D               	andwf	(floorf@u+3)^0,w,c
  5131  002668  6E21               	movwf	(??_floorf+3)^0,c
  5132  00266A  501E               	movf	??_floorf^0,w,c
  5133  00266C  101F               	iorwf	(??_floorf+1)^0,w,c
  5134  00266E  1020               	iorwf	(??_floorf+2)^0,w,c
  5135  002670  1021               	iorwf	(??_floorf+3)^0,w,c
  5136  002672  A4D8               	btfss	status,2,c
  5137  002674  EF3E  F013         	goto	i2u382_41
  5138  002678  EF40  F013         	goto	i2u382_40
  5139  00267C                     i2u382_41:
  5140  00267C  EF42  F013         	goto	i2l3430
  5141  002680                     i2u382_40:
  5142  002680  EFF9  F012         	goto	i2l3422
  5143  002684                     i2l3430:
  5144  002684  C02A  F01E         	movff	floorf@u,??_floorf
  5145  002688  C02B  F01F         	movff	floorf@u+1,??_floorf+1
  5146  00268C  C02C  F020         	movff	floorf@u+2,??_floorf+2
  5147  002690  C02D  F021         	movff	floorf@u+3,??_floorf+3
  5148  002694  0E20               	movlw	32
  5149  002696  EF52  F013         	goto	i2u383_40
  5150  00269A                     i2u383_45:
  5151  00269A  90D8               	bcf	status,0,c
  5152  00269C  3221               	rrcf	(??_floorf+3)^0,f,c
  5153  00269E  3220               	rrcf	(??_floorf+2)^0,f,c
  5154  0026A0  321F               	rrcf	(??_floorf+1)^0,f,c
  5155  0026A2  321E               	rrcf	??_floorf^0,f,c
  5156  0026A4                     i2u383_40:
  5157  0026A4  2EE8               	decfsz	wreg,f,c
  5158  0026A6  EF4D  F013         	goto	i2u383_45
  5159  0026AA  501E               	movf	??_floorf^0,w,c
  5160  0026AC  101F               	iorwf	(??_floorf+1)^0,w,c
  5161  0026AE  1020               	iorwf	(??_floorf+2)^0,w,c
  5162  0026B0  1021               	iorwf	(??_floorf+3)^0,w,c
  5163  0026B2  B4D8               	btfsc	status,2,c
  5164  0026B4  EF5E  F013         	goto	i2u384_41
  5165  0026B8  EF60  F013         	goto	i2u384_40
  5166  0026BC                     i2u384_41:
  5167  0026BC  EF68  F013         	goto	i2l1039
  5168  0026C0                     i2u384_40:
  5169  0026C0  5024               	movf	floorf@m^0,w,c
  5170  0026C2  262A               	addwf	floorf@u^0,f,c
  5171  0026C4  5025               	movf	(floorf@m+1)^0,w,c
  5172  0026C6  222B               	addwfc	(floorf@u+1)^0,f,c
  5173  0026C8  5026               	movf	(floorf@m+2)^0,w,c
  5174  0026CA  222C               	addwfc	(floorf@u+2)^0,f,c
  5175  0026CC  5027               	movf	(floorf@m+3)^0,w,c
  5176  0026CE  222D               	addwfc	(floorf@u+3)^0,f,c
  5177  0026D0                     i2l1039:
  5178  0026D0  1C24               	comf	floorf@m^0,w,c
  5179  0026D2  6E1E               	movwf	??_floorf^0,c
  5180  0026D4  1C25               	comf	(floorf@m+1)^0,w,c
  5181  0026D6  6E1F               	movwf	(??_floorf+1)^0,c
  5182  0026D8  1C26               	comf	(floorf@m+2)^0,w,c
  5183  0026DA  6E20               	movwf	(??_floorf+2)^0,c
  5184  0026DC  1C27               	comf	(floorf@m+3)^0,w,c
  5185  0026DE  6E21               	movwf	(??_floorf+3)^0,c
  5186  0026E0  501E               	movf	??_floorf^0,w,c
  5187  0026E2  162A               	andwf	floorf@u^0,f,c
  5188  0026E4  501F               	movf	(??_floorf+1)^0,w,c
  5189  0026E6  162B               	andwf	(floorf@u+1)^0,f,c
  5190  0026E8  5020               	movf	(??_floorf+2)^0,w,c
  5191  0026EA  162C               	andwf	(floorf@u+2)^0,f,c
  5192  0026EC  5021               	movf	(??_floorf+3)^0,w,c
  5193  0026EE  162D               	andwf	(floorf@u+3)^0,f,c
  5194  0026F0  EFBE  F013         	goto	i2l3442
  5195  0026F4                     i2l3434:
  5196  0026F4  C02A  F01E         	movff	floorf@u,??_floorf
  5197  0026F8  C02B  F01F         	movff	floorf@u+1,??_floorf+1
  5198  0026FC  C02C  F020         	movff	floorf@u+2,??_floorf+2
  5199  002700  C02D  F021         	movff	floorf@u+3,??_floorf+3
  5200  002704  0E20               	movlw	32
  5201  002706  EF8A  F013         	goto	i2u385_40
  5202  00270A                     i2u385_45:
  5203  00270A  90D8               	bcf	status,0,c
  5204  00270C  3221               	rrcf	(??_floorf+3)^0,f,c
  5205  00270E  3220               	rrcf	(??_floorf+2)^0,f,c
  5206  002710  321F               	rrcf	(??_floorf+1)^0,f,c
  5207  002712  321E               	rrcf	??_floorf^0,f,c
  5208  002714                     i2u385_40:
  5209  002714  2EE8               	decfsz	wreg,f,c
  5210  002716  EF85  F013         	goto	i2u385_45
  5211  00271A  501E               	movf	??_floorf^0,w,c
  5212  00271C  101F               	iorwf	(??_floorf+1)^0,w,c
  5213  00271E  1020               	iorwf	(??_floorf+2)^0,w,c
  5214  002720  1021               	iorwf	(??_floorf+3)^0,w,c
  5215  002722  A4D8               	btfss	status,2,c
  5216  002724  EF96  F013         	goto	i2u386_41
  5217  002728  EF98  F013         	goto	i2u386_40
  5218  00272C                     i2u386_41:
  5219  00272C  EFA2  F013         	goto	i2l3438
  5220  002730                     i2u386_40:
  5221  002730  0E00               	movlw	0
  5222  002732  6E2A               	movwf	floorf@u^0,c
  5223  002734  0E00               	movlw	0
  5224  002736  6E2B               	movwf	(floorf@u+1)^0,c
  5225  002738  0E00               	movlw	0
  5226  00273A  6E2C               	movwf	(floorf@u+2)^0,c
  5227  00273C  0E00               	movlw	0
  5228  00273E  6E2D               	movwf	(floorf@u+3)^0,c
  5229  002740  EFBE  F013         	goto	i2l3442
  5230  002744                     i2l3438:
  5231  002744  90D8               	bcf	status,0,c
  5232  002746  342A               	rlcf	floorf@u^0,w,c
  5233  002748  6E1E               	movwf	??_floorf^0,c
  5234  00274A  342B               	rlcf	(floorf@u+1)^0,w,c
  5235  00274C  6E1F               	movwf	(??_floorf+1)^0,c
  5236  00274E  342C               	rlcf	(floorf@u+2)^0,w,c
  5237  002750  6E20               	movwf	(??_floorf+2)^0,c
  5238  002752  342D               	rlcf	(floorf@u+3)^0,w,c
  5239  002754  6E21               	movwf	(??_floorf+3)^0,c
  5240  002756  501E               	movf	??_floorf^0,w,c
  5241  002758  101F               	iorwf	(??_floorf+1)^0,w,c
  5242  00275A  1020               	iorwf	(??_floorf+2)^0,w,c
  5243  00275C  1021               	iorwf	(??_floorf+3)^0,w,c
  5244  00275E  B4D8               	btfsc	status,2,c
  5245  002760  EFB4  F013         	goto	i2u387_41
  5246  002764  EFB6  F013         	goto	i2u387_40
  5247  002768                     i2u387_41:
  5248  002768  EFBE  F013         	goto	i2l3442
  5249  00276C                     i2u387_40:
  5250  00276C  0E00               	movlw	0
  5251  00276E  6E2A               	movwf	floorf@u^0,c
  5252  002770  0E00               	movlw	0
  5253  002772  6E2B               	movwf	(floorf@u+1)^0,c
  5254  002774  0E80               	movlw	128
  5255  002776  6E2C               	movwf	(floorf@u+2)^0,c
  5256  002778  0EBF               	movlw	191
  5257  00277A  6E2D               	movwf	(floorf@u+3)^0,c
  5258  00277C                     i2l3442:
  5259  00277C  C02A  F01A         	movff	floorf@u,?_floorf
  5260  002780  C02B  F01B         	movff	floorf@u+1,?_floorf+1
  5261  002784  C02C  F01C         	movff	floorf@u+2,?_floorf+2
  5262  002788  C02D  F01D         	movff	floorf@u+3,?_floorf+3
  5263  00278C                     i2l1036:
  5264  00278C  0012               	return		;funcret
  5265  00278E                     __end_of_floorf:
  5266                           	callstack 0
  5267                           
  5268 ;; *************** function ___fpclassifyf *****************
  5269 ;; Defined at:
  5270 ;;		line 4 in file "C:\Program Files\Microchip\xc8\v2.20\pic\sources\c99\common\__fpclassifyf.c"
  5271 ;; Parameters:    Size  Location     Type
  5272 ;;  x               4    0[COMRAM] float 
  5273 ;; Auto vars:     Size  Location     Type
  5274 ;;  u               4   10[COMRAM] struct .
  5275 ;;  e               2    8[COMRAM] int 
  5276 ;; Return value:  Size  Location     Type
  5277 ;;                  2    0[COMRAM] int 
  5278 ;; Registers used:
  5279 ;;		wreg, status,2, status,0
  5280 ;; Tracked objects:
  5281 ;;		On entry : 0/0
  5282 ;;		On exit  : 0/0
  5283 ;;		Unchanged: 0/0
  5284 ;; Data sizes:     COMRAM   BANK0   BANK1   BANK2   BANK3   BANK4   BANK5   BANK6   BANK7
  5285 ;;      Params:         4       0       0       0       0       0       0       0       0
  5286 ;;      Locals:         6       0       0       0       0       0       0       0       0
  5287 ;;      Temps:          4       0       0       0       0       0       0       0       0
  5288 ;;      Totals:        14       0       0       0       0       0       0       0       0
  5289 ;;Total ram usage:       14 bytes
  5290 ;; Hardware stack levels used:    1
  5291 ;; This function calls:
  5292 ;;		Nothing
  5293 ;; This function is called by:
  5294 ;;		_efgtoa
  5295 ;; This function uses a non-reentrant model
  5296 ;;
  5297                           
  5298                           	psect	text22
  5299  002DE4                     __ptext22:
  5300                           	callstack 0
  5301  002DE4                     ___fpclassifyf:
  5302                           	callstack 22
  5303  002DE4  C0BC  F00B         	movff	___fpclassifyf@F463,___fpclassifyf@u
  5304  002DE8  C0BD  F00C         	movff	___fpclassifyf@F463+1,___fpclassifyf@u+1
  5305  002DEC  C0BE  F00D         	movff	___fpclassifyf@F463+2,___fpclassifyf@u+2
  5306  002DF0  C0BF  F00E         	movff	___fpclassifyf@F463+3,___fpclassifyf@u+3
  5307  002DF4  C001  F00B         	movff	___fpclassifyf@x,___fpclassifyf@u
  5308  002DF8  C002  F00C         	movff	___fpclassifyf@x+1,___fpclassifyf@u+1
  5309  002DFC  C003  F00D         	movff	___fpclassifyf@x+2,___fpclassifyf@u+2
  5310  002E00  C004  F00E         	movff	___fpclassifyf@x+3,___fpclassifyf@u+3
  5311  002E04  C00B  F005         	movff	___fpclassifyf@u,??___fpclassifyf
  5312  002E08  C00C  F006         	movff	___fpclassifyf@u+1,??___fpclassifyf+1
  5313  002E0C  C00D  F007         	movff	___fpclassifyf@u+2,??___fpclassifyf+2
  5314  002E10  C00E  F008         	movff	___fpclassifyf@u+3,??___fpclassifyf+3
  5315  002E14  0E18               	movlw	24
  5316  002E16  EF12  F017         	goto	i2u366_40
  5317  002E1A                     i2u366_45:
  5318  002E1A  90D8               	bcf	status,0,c
  5319  002E1C  3208               	rrcf	(??___fpclassifyf+3)^0,f,c
  5320  002E1E  3207               	rrcf	(??___fpclassifyf+2)^0,f,c
  5321  002E20  3206               	rrcf	(??___fpclassifyf+1)^0,f,c
  5322  002E22  3205               	rrcf	??___fpclassifyf^0,f,c
  5323  002E24                     i2u366_40:
  5324  002E24  2EE8               	decfsz	wreg,f,c
  5325  002E26  EF0D  F017         	goto	i2u366_45
  5326  002E2A  5005               	movf	??___fpclassifyf^0,w,c
  5327  002E2C  6E09               	movwf	___fpclassifyf@e^0,c
  5328  002E2E  6A0A               	clrf	(___fpclassifyf@e+1)^0,c
  5329  002E30  5009               	movf	___fpclassifyf@e^0,w,c
  5330  002E32  100A               	iorwf	(___fpclassifyf@e+1)^0,w,c
  5331  002E34  A4D8               	btfss	status,2,c
  5332  002E36  EF1F  F017         	goto	i2u367_41
  5333  002E3A  EF21  F017         	goto	i2u367_40
  5334  002E3E                     i2u367_41:
  5335  002E3E  EF41  F017         	goto	i2l3394
  5336  002E42                     i2u367_40:
  5337  002E42  90D8               	bcf	status,0,c
  5338  002E44  340B               	rlcf	___fpclassifyf@u^0,w,c
  5339  002E46  6E05               	movwf	??___fpclassifyf^0,c
  5340  002E48  340C               	rlcf	(___fpclassifyf@u+1)^0,w,c
  5341  002E4A  6E06               	movwf	(??___fpclassifyf+1)^0,c
  5342  002E4C  340D               	rlcf	(___fpclassifyf@u+2)^0,w,c
  5343  002E4E  6E07               	movwf	(??___fpclassifyf+2)^0,c
  5344  002E50  340E               	rlcf	(___fpclassifyf@u+3)^0,w,c
  5345  002E52  6E08               	movwf	(??___fpclassifyf+3)^0,c
  5346  002E54  5005               	movf	??___fpclassifyf^0,w,c
  5347  002E56  1006               	iorwf	(??___fpclassifyf+1)^0,w,c
  5348  002E58  1007               	iorwf	(??___fpclassifyf+2)^0,w,c
  5349  002E5A  1008               	iorwf	(??___fpclassifyf+3)^0,w,c
  5350  002E5C  A4D8               	btfss	status,2,c
  5351  002E5E  EF33  F017         	goto	i2u368_41
  5352  002E62  EF35  F017         	goto	i2u368_40
  5353  002E66                     i2u368_41:
  5354  002E66  EF3B  F017         	goto	i2l3390
  5355  002E6A                     i2u368_40:
  5356  002E6A  0E00               	movlw	0
  5357  002E6C  6E02               	movwf	(?___fpclassifyf+1)^0,c
  5358  002E6E  0E02               	movlw	2
  5359  002E70  6E01               	movwf	?___fpclassifyf^0,c
  5360  002E72  EF70  F017         	goto	i2l998
  5361  002E76                     i2l3390:
  5362  002E76  0E00               	movlw	0
  5363  002E78  6E02               	movwf	(?___fpclassifyf+1)^0,c
  5364  002E7A  0E03               	movlw	3
  5365  002E7C  6E01               	movwf	?___fpclassifyf^0,c
  5366  002E7E  EF70  F017         	goto	i2l998
  5367  002E82                     i2l3394:
  5368  002E82  2809               	incf	___fpclassifyf@e^0,w,c
  5369  002E84  100A               	iorwf	(___fpclassifyf@e+1)^0,w,c
  5370  002E86  A4D8               	btfss	status,2,c
  5371  002E88  EF48  F017         	goto	i2u369_41
  5372  002E8C  EF4A  F017         	goto	i2u369_40
  5373  002E90                     i2u369_41:
  5374  002E90  EF6C  F017         	goto	i2l3400
  5375  002E94                     i2u369_40:
  5376  002E94  C00B  F005         	movff	___fpclassifyf@u,??___fpclassifyf
  5377  002E98  C00C  F006         	movff	___fpclassifyf@u+1,??___fpclassifyf+1
  5378  002E9C  C00D  F007         	movff	___fpclassifyf@u+2,??___fpclassifyf+2
  5379  002EA0  C00E  F008         	movff	___fpclassifyf@u+3,??___fpclassifyf+3
  5380  002EA4  0E09               	movlw	9
  5381  002EA6                     i2u370_45:
  5382  002EA6  90D8               	bcf	status,0,c
  5383  002EA8  3605               	rlcf	??___fpclassifyf^0,f,c
  5384  002EAA  3606               	rlcf	(??___fpclassifyf+1)^0,f,c
  5385  002EAC  3607               	rlcf	(??___fpclassifyf+2)^0,f,c
  5386  002EAE  3608               	rlcf	(??___fpclassifyf+3)^0,f,c
  5387  002EB0  2EE8               	decfsz	wreg,f,c
  5388  002EB2  EF53  F017         	goto	i2u370_45
  5389  002EB6  5005               	movf	??___fpclassifyf^0,w,c
  5390  002EB8  1006               	iorwf	(??___fpclassifyf+1)^0,w,c
  5391  002EBA  1007               	iorwf	(??___fpclassifyf+2)^0,w,c
  5392  002EBC  1008               	iorwf	(??___fpclassifyf+3)^0,w,c
  5393  002EBE  B4D8               	btfsc	status,2,c
  5394  002EC0  EF64  F017         	goto	i2u371_41
  5395  002EC4  EF67  F017         	goto	i2u371_40
  5396  002EC8                     i2u371_41:
  5397  002EC8  0E01               	movlw	1
  5398  002ECA  EF68  F017         	goto	i2u372_40
  5399  002ECE                     i2u371_40:
  5400  002ECE  0E00               	movlw	0
  5401  002ED0                     i2u372_40:
  5402  002ED0  6E01               	movwf	?___fpclassifyf^0,c
  5403  002ED2  6A02               	clrf	(?___fpclassifyf+1)^0,c
  5404  002ED4  EF70  F017         	goto	i2l998
  5405  002ED8                     i2l3400:
  5406  002ED8  0E00               	movlw	0
  5407  002EDA  6E02               	movwf	(?___fpclassifyf+1)^0,c
  5408  002EDC  0E04               	movlw	4
  5409  002EDE  6E01               	movwf	?___fpclassifyf^0,c
  5410  002EE0                     i2l998:
  5411  002EE0  0012               	return		;funcret
  5412  002EE2                     __end_of___fpclassifyf:
  5413                           	callstack 0
  5414                           
  5415 ;; *************** function ___fltol *****************
  5416 ;; Defined at:
  5417 ;;		line 43 in file "C:\Program Files\Microchip\xc8\v2.20\pic\sources\c99\common\fltol.c"
  5418 ;; Parameters:    Size  Location     Type
  5419 ;;  f1              4    0[COMRAM] int 
  5420 ;; Auto vars:     Size  Location     Type
  5421 ;;  exp1            1    9[COMRAM] unsigned char 
  5422 ;;  sign1           1    8[COMRAM] unsigned char 
  5423 ;; Return value:  Size  Location     Type
  5424 ;;                  4    0[COMRAM] long 
  5425 ;; Registers used:
  5426 ;;		wreg, status,2, status,0
  5427 ;; Tracked objects:
  5428 ;;		On entry : 0/0
  5429 ;;		On exit  : 0/0
  5430 ;;		Unchanged: 0/0
  5431 ;; Data sizes:     COMRAM   BANK0   BANK1   BANK2   BANK3   BANK4   BANK5   BANK6   BANK7
  5432 ;;      Params:         4       0       0       0       0       0       0       0       0
  5433 ;;      Locals:         2       0       0       0       0       0       0       0       0
  5434 ;;      Temps:          4       0       0       0       0       0       0       0       0
  5435 ;;      Totals:        10       0       0       0       0       0       0       0       0
  5436 ;;Total ram usage:       10 bytes
  5437 ;; Hardware stack levels used:    1
  5438 ;; This function calls:
  5439 ;;		Nothing
  5440 ;; This function is called by:
  5441 ;;		_efgtoa
  5442 ;; This function uses a non-reentrant model
  5443 ;;
  5444                           
  5445                           	psect	text23
  5446  002BDA                     __ptext23:
  5447                           	callstack 0
  5448  002BDA                     ___fltol:
  5449                           	callstack 22
  5450  002BDA  3403               	rlcf	(___fltol@f1+2)^0,w,c
  5451  002BDC  3404               	rlcf	(___fltol@f1+3)^0,w,c
  5452  002BDE  6E0A               	movwf	___fltol@exp1^0,c
  5453  002BE0  500A               	movf	___fltol@exp1^0,w,c
  5454  002BE2  A4D8               	btfss	status,2,c
  5455  002BE4  EFF6  F015         	goto	i2u355_41
  5456  002BE8  EFF8  F015         	goto	i2u355_40
  5457  002BEC                     i2u355_41:
  5458  002BEC  EF02  F016         	goto	i2l3322
  5459  002BF0                     i2u355_40:
  5460  002BF0                     i2l3318:
  5461  002BF0  0E00               	movlw	0
  5462  002BF2  6E01               	movwf	?___fltol^0,c
  5463  002BF4  0E00               	movlw	0
  5464  002BF6  6E02               	movwf	(?___fltol+1)^0,c
  5465  002BF8  0E00               	movlw	0
  5466  002BFA  6E03               	movwf	(?___fltol+2)^0,c
  5467  002BFC  0E00               	movlw	0
  5468  002BFE  6E04               	movwf	(?___fltol+3)^0,c
  5469  002C00  EF6F  F016         	goto	i2l427
  5470  002C04                     i2l3322:
  5471  002C04  C001  F005         	movff	___fltol@f1,??___fltol
  5472  002C08  C002  F006         	movff	___fltol@f1+1,??___fltol+1
  5473  002C0C  C003  F007         	movff	___fltol@f1+2,??___fltol+2
  5474  002C10  C004  F008         	movff	___fltol@f1+3,??___fltol+3
  5475  002C14  0E20               	movlw	32
  5476  002C16  EF12  F016         	goto	i2u356_40
  5477  002C1A                     i2u356_45:
  5478  002C1A  90D8               	bcf	status,0,c
  5479  002C1C  3208               	rrcf	(??___fltol+3)^0,f,c
  5480  002C1E  3207               	rrcf	(??___fltol+2)^0,f,c
  5481  002C20  3206               	rrcf	(??___fltol+1)^0,f,c
  5482  002C22  3205               	rrcf	??___fltol^0,f,c
  5483  002C24                     i2u356_40:
  5484  002C24  2EE8               	decfsz	wreg,f,c
  5485  002C26  EF0D  F016         	goto	i2u356_45
  5486  002C2A  5005               	movf	??___fltol^0,w,c
  5487  002C2C  6E09               	movwf	___fltol@sign1^0,c
  5488  002C2E  8E03               	bsf	(___fltol@f1+2)^0,7,c
  5489  002C30  0EFF               	movlw	255
  5490  002C32  1601               	andwf	___fltol@f1^0,f,c
  5491  002C34  0EFF               	movlw	255
  5492  002C36  1602               	andwf	(___fltol@f1+1)^0,f,c
  5493  002C38  0EFF               	movlw	255
  5494  002C3A  1603               	andwf	(___fltol@f1+2)^0,f,c
  5495  002C3C  0E00               	movlw	0
  5496  002C3E  1604               	andwf	(___fltol@f1+3)^0,f,c
  5497  002C40  0E96               	movlw	150
  5498  002C42  5E0A               	subwf	___fltol@exp1^0,f,c
  5499  002C44  BE0A               	btfsc	___fltol@exp1^0,7,c
  5500  002C46  EF29  F016         	goto	i2u357_40
  5501  002C4A  EF27  F016         	goto	i2u357_41
  5502  002C4E                     i2u357_41:
  5503  002C4E  EF3F  F016         	goto	i2l3342
  5504  002C52                     i2u357_40:
  5505  002C52  500A               	movf	___fltol@exp1^0,w,c
  5506  002C54  0A80               	xorlw	128
  5507  002C56  0F97               	addlw	151
  5508  002C58  B0D8               	btfsc	status,0,c
  5509  002C5A  EF31  F016         	goto	i2u358_41
  5510  002C5E  EF33  F016         	goto	i2u358_40
  5511  002C62                     i2u358_41:
  5512  002C62  EF35  F016         	goto	i2l3338
  5513  002C66                     i2u358_40:
  5514  002C66  EFF8  F015         	goto	i2l3318
  5515  002C6A                     i2l3338:
  5516  002C6A  90D8               	bcf	status,0,c
  5517  002C6C  3204               	rrcf	(___fltol@f1+3)^0,f,c
  5518  002C6E  3203               	rrcf	(___fltol@f1+2)^0,f,c
  5519  002C70  3202               	rrcf	(___fltol@f1+1)^0,f,c
  5520  002C72  3201               	rrcf	___fltol@f1^0,f,c
  5521  002C74  3E0A               	incfsz	___fltol@exp1^0,f,c
  5522  002C76  EF35  F016         	goto	i2l3338
  5523  002C7A  EF57  F016         	goto	i2l3352
  5524  002C7E                     i2l3342:
  5525  002C7E  0E1F               	movlw	31
  5526  002C80  640A               	cpfsgt	___fltol@exp1^0,c
  5527  002C82  EF45  F016         	goto	i2u359_41
  5528  002C86  EF47  F016         	goto	i2u359_40
  5529  002C8A                     i2u359_41:
  5530  002C8A  EF4F  F016         	goto	i2l3350
  5531  002C8E                     i2u359_40:
  5532  002C8E  EFF8  F015         	goto	i2l3318
  5533  002C92                     i2l3348:
  5534  002C92  90D8               	bcf	status,0,c
  5535  002C94  3601               	rlcf	___fltol@f1^0,f,c
  5536  002C96  3602               	rlcf	(___fltol@f1+1)^0,f,c
  5537  002C98  3603               	rlcf	(___fltol@f1+2)^0,f,c
  5538  002C9A  3604               	rlcf	(___fltol@f1+3)^0,f,c
  5539  002C9C  060A               	decf	___fltol@exp1^0,f,c
  5540  002C9E                     i2l3350:
  5541  002C9E  500A               	movf	___fltol@exp1^0,w,c
  5542  002CA0  A4D8               	btfss	status,2,c
  5543  002CA2  EF55  F016         	goto	i2u360_41
  5544  002CA6  EF57  F016         	goto	i2u360_40
  5545  002CAA                     i2u360_41:
  5546  002CAA  EF49  F016         	goto	i2l3348
  5547  002CAE                     i2u360_40:
  5548  002CAE                     i2l3352:
  5549  002CAE  5009               	movf	___fltol@sign1^0,w,c
  5550  002CB0  B4D8               	btfsc	status,2,c
  5551  002CB2  EF5D  F016         	goto	i2u361_41
  5552  002CB6  EF5F  F016         	goto	i2u361_40
  5553  002CBA                     i2u361_41:
  5554  002CBA  EF67  F016         	goto	i2l3356
  5555  002CBE                     i2u361_40:
  5556  002CBE  1E04               	comf	(___fltol@f1+3)^0,f,c
  5557  002CC0  1E03               	comf	(___fltol@f1+2)^0,f,c
  5558  002CC2  1E02               	comf	(___fltol@f1+1)^0,f,c
  5559  002CC4  6C01               	negf	___fltol@f1^0,c
  5560  002CC6  0E00               	movlw	0
  5561  002CC8  2202               	addwfc	(___fltol@f1+1)^0,f,c
  5562  002CCA  2203               	addwfc	(___fltol@f1+2)^0,f,c
  5563  002CCC  2204               	addwfc	(___fltol@f1+3)^0,f,c
  5564  002CCE                     i2l3356:
  5565  002CCE  C001  F001         	movff	___fltol@f1,?___fltol
  5566  002CD2  C002  F002         	movff	___fltol@f1+1,?___fltol+1
  5567  002CD6  C003  F003         	movff	___fltol@f1+2,?___fltol+2
  5568  002CDA  C004  F004         	movff	___fltol@f1+3,?___fltol+3
  5569  002CDE                     i2l427:
  5570  002CDE  0012               	return		;funcret
  5571  002CE0                     __end_of___fltol:
  5572                           	callstack 0
  5573                           
  5574 ;; *************** function ___flsub *****************
  5575 ;; Defined at:
  5576 ;;		line 245 in file "C:\Program Files\Microchip\xc8\v2.20\pic\sources\c99\common\sprcadd.c"
  5577 ;; Parameters:    Size  Location     Type
  5578 ;;  b               4   39[COMRAM] long 
  5579 ;;  a               4   43[COMRAM] long 
  5580 ;; Auto vars:     Size  Location     Type
  5581 ;;		None
  5582 ;; Return value:  Size  Location     Type
  5583 ;;                  4   39[COMRAM] long 
  5584 ;; Registers used:
  5585 ;;		wreg, status,2, status,0, cstack
  5586 ;; Tracked objects:
  5587 ;;		On entry : 0/0
  5588 ;;		On exit  : 0/0
  5589 ;;		Unchanged: 0/0
  5590 ;; Data sizes:     COMRAM   BANK0   BANK1   BANK2   BANK3   BANK4   BANK5   BANK6   BANK7
  5591 ;;      Params:         8       0       0       0       0       0       0       0       0
  5592 ;;      Locals:         0       0       0       0       0       0       0       0       0
  5593 ;;      Temps:          0       0       0       0       0       0       0       0       0
  5594 ;;      Totals:         8       0       0       0       0       0       0       0       0
  5595 ;;Total ram usage:        8 bytes
  5596 ;; Hardware stack levels used:    1
  5597 ;; Hardware stack levels required when called:    1
  5598 ;; This function calls:
  5599 ;;		___fladd
  5600 ;; This function is called by:
  5601 ;;		_efgtoa
  5602 ;; This function uses a non-reentrant model
  5603 ;;
  5604                           
  5605                           	psect	text24
  5606  003674                     __ptext24:
  5607                           	callstack 0
  5608  003674                     ___flsub:
  5609                           	callstack 21
  5610  003674  0E00               	movlw	0
  5611  003676  1A2C               	xorwf	___flsub@a^0,f,c
  5612  003678  0E00               	movlw	0
  5613  00367A  1A2D               	xorwf	(___flsub@a+1)^0,f,c
  5614  00367C  0E00               	movlw	0
  5615  00367E  1A2E               	xorwf	(___flsub@a+2)^0,f,c
  5616  003680  0E80               	movlw	128
  5617  003682  1A2F               	xorwf	(___flsub@a+3)^0,f,c
  5618  003684  C028  F001         	movff	___flsub@b,___fladd@b
  5619  003688  C029  F002         	movff	___flsub@b+1,___fladd@b+1
  5620  00368C  C02A  F003         	movff	___flsub@b+2,___fladd@b+2
  5621  003690  C02B  F004         	movff	___flsub@b+3,___fladd@b+3
  5622  003694  C02C  F005         	movff	___flsub@a,___fladd@a
  5623  003698  C02D  F006         	movff	___flsub@a+1,___fladd@a+1
  5624  00369C  C02E  F007         	movff	___flsub@a+2,___fladd@a+2
  5625  0036A0  C02F  F008         	movff	___flsub@a+3,___fladd@a+3
  5626  0036A4  EC7C  F00C         	call	___fladd	;wreg free
  5627  0036A8  C001  F028         	movff	?___fladd,?___flsub
  5628  0036AC  C002  F029         	movff	?___fladd+1,?___flsub+1
  5629  0036B0  C003  F02A         	movff	?___fladd+2,?___flsub+2
  5630  0036B4  C004  F02B         	movff	?___fladd+3,?___flsub+3
  5631  0036B8  0012               	return		;funcret
  5632  0036BA                     __end_of___flsub:
  5633                           	callstack 0
  5634                           
  5635 ;; *************** function ___fladd *****************
  5636 ;; Defined at:
  5637 ;;		line 10 in file "C:\Program Files\Microchip\xc8\v2.20\pic\sources\c99\common\sprcadd.c"
  5638 ;; Parameters:    Size  Location     Type
  5639 ;;  b               4    0[COMRAM] long 
  5640 ;;  a               4    4[COMRAM] long 
  5641 ;; Auto vars:     Size  Location     Type
  5642 ;;  grs             1   15[COMRAM] unsigned char 
  5643 ;;  bexp            1   14[COMRAM] unsigned char 
  5644 ;;  aexp            1   13[COMRAM] unsigned char 
  5645 ;;  signs           1   12[COMRAM] unsigned char 
  5646 ;; Return value:  Size  Location     Type
  5647 ;;                  4    0[COMRAM] unsigned char 
  5648 ;; Registers used:
  5649 ;;		wreg, status,2, status,0
  5650 ;; Tracked objects:
  5651 ;;		On entry : 0/0
  5652 ;;		On exit  : 0/0
  5653 ;;		Unchanged: 0/0
  5654 ;; Data sizes:     COMRAM   BANK0   BANK1   BANK2   BANK3   BANK4   BANK5   BANK6   BANK7
  5655 ;;      Params:         8       0       0       0       0       0       0       0       0
  5656 ;;      Locals:         4       0       0       0       0       0       0       0       0
  5657 ;;      Temps:          4       0       0       0       0       0       0       0       0
  5658 ;;      Totals:        16       0       0       0       0       0       0       0       0
  5659 ;;Total ram usage:       16 bytes
  5660 ;; Hardware stack levels used:    1
  5661 ;; This function calls:
  5662 ;;		Nothing
  5663 ;; This function is called by:
  5664 ;;		___flsub
  5665 ;;		_efgtoa
  5666 ;; This function uses a non-reentrant model
  5667 ;;
  5668                           
  5669                           	psect	text25
  5670  0018F8                     __ptext25:
  5671                           	callstack 0
  5672  0018F8                     ___fladd:
  5673                           	callstack 21
  5674  0018F8  5004               	movf	(___fladd@b+3)^0,w,c
  5675  0018FA  0B80               	andlw	128
  5676  0018FC  6E0D               	movwf	___fladd@signs^0,c
  5677  0018FE  5004               	movf	(___fladd@b+3)^0,w,c
  5678  001900  2404               	addwf	(___fladd@b+3)^0,w,c
  5679  001902  6E0F               	movwf	___fladd@bexp^0,c
  5680  001904  AE03               	btfss	(___fladd@b+2)^0,7,c
  5681  001906  EF87  F00C         	goto	i2u249_41
  5682  00190A  EF89  F00C         	goto	i2u249_40
  5683  00190E                     i2u249_41:
  5684  00190E  EF8A  F00C         	goto	i2l2692
  5685  001912                     i2u249_40:
  5686  001912  800F               	bsf	___fladd@bexp^0,0,c
  5687  001914                     i2l2692:
  5688  001914  500F               	movf	___fladd@bexp^0,w,c
  5689  001916  B4D8               	btfsc	status,2,c
  5690  001918  EF90  F00C         	goto	i2u250_41
  5691  00191C  EF92  F00C         	goto	i2u250_40
  5692  001920                     i2u250_41:
  5693  001920  EFA7  F00C         	goto	i2l2702
  5694  001924                     i2u250_40:
  5695  001924  280F               	incf	___fladd@bexp^0,w,c
  5696  001926  A4D8               	btfss	status,2,c
  5697  001928  EF98  F00C         	goto	i2u251_41
  5698  00192C  EF9A  F00C         	goto	i2u251_40
  5699  001930                     i2u251_41:
  5700  001930  EFA2  F00C         	goto	i2l2698
  5701  001934                     i2u251_40:
  5702  001934  0E00               	movlw	0
  5703  001936  6E01               	movwf	___fladd@b^0,c
  5704  001938  0E00               	movlw	0
  5705  00193A  6E02               	movwf	(___fladd@b+1)^0,c
  5706  00193C  0E00               	movlw	0
  5707  00193E  6E03               	movwf	(___fladd@b+2)^0,c
  5708  001940  0E00               	movlw	0
  5709  001942  6E04               	movwf	(___fladd@b+3)^0,c
  5710  001944                     i2l2698:
  5711  001944  8E03               	bsf	(___fladd@b+2)^0,7,c
  5712  001946  0E00               	movlw	0
  5713  001948  6E04               	movwf	(___fladd@b+3)^0,c
  5714  00194A  EFAF  F00C         	goto	i2l2704
  5715  00194E                     i2l2702:
  5716  00194E  0E00               	movlw	0
  5717  001950  6E01               	movwf	___fladd@b^0,c
  5718  001952  0E00               	movlw	0
  5719  001954  6E02               	movwf	(___fladd@b+1)^0,c
  5720  001956  0E00               	movlw	0
  5721  001958  6E03               	movwf	(___fladd@b+2)^0,c
  5722  00195A  0E00               	movlw	0
  5723  00195C  6E04               	movwf	(___fladd@b+3)^0,c
  5724  00195E                     i2l2704:
  5725  00195E  5008               	movf	(___fladd@a+3)^0,w,c
  5726  001960  0B80               	andlw	128
  5727  001962  6E0E               	movwf	___fladd@aexp^0,c
  5728  001964  500D               	movf	___fladd@signs^0,w,c
  5729  001966  180E               	xorwf	___fladd@aexp^0,w,c
  5730  001968  B4D8               	btfsc	status,2,c
  5731  00196A  EFB9  F00C         	goto	i2u252_41
  5732  00196E  EFBB  F00C         	goto	i2u252_40
  5733  001972                     i2u252_41:
  5734  001972  EFBC  F00C         	goto	i2l2710
  5735  001976                     i2u252_40:
  5736  001976  8C0D               	bsf	___fladd@signs^0,6,c
  5737  001978                     i2l2710:
  5738  001978  5008               	movf	(___fladd@a+3)^0,w,c
  5739  00197A  2408               	addwf	(___fladd@a+3)^0,w,c
  5740  00197C  6E0E               	movwf	___fladd@aexp^0,c
  5741  00197E  AE07               	btfss	(___fladd@a+2)^0,7,c
  5742  001980  EFC4  F00C         	goto	i2u253_41
  5743  001984  EFC6  F00C         	goto	i2u253_40
  5744  001988                     i2u253_41:
  5745  001988  EFC7  F00C         	goto	i2l2716
  5746  00198C                     i2u253_40:
  5747  00198C  800E               	bsf	___fladd@aexp^0,0,c
  5748  00198E                     i2l2716:
  5749  00198E  500E               	movf	___fladd@aexp^0,w,c
  5750  001990  B4D8               	btfsc	status,2,c
  5751  001992  EFCD  F00C         	goto	i2u254_41
  5752  001996  EFCF  F00C         	goto	i2u254_40
  5753  00199A                     i2u254_41:
  5754  00199A  EFE4  F00C         	goto	i2l2726
  5755  00199E                     i2u254_40:
  5756  00199E  280E               	incf	___fladd@aexp^0,w,c
  5757  0019A0  A4D8               	btfss	status,2,c
  5758  0019A2  EFD5  F00C         	goto	i2u255_41
  5759  0019A6  EFD7  F00C         	goto	i2u255_40
  5760  0019AA                     i2u255_41:
  5761  0019AA  EFDF  F00C         	goto	i2l2722
  5762  0019AE                     i2u255_40:
  5763  0019AE  0E00               	movlw	0
  5764  0019B0  6E05               	movwf	___fladd@a^0,c
  5765  0019B2  0E00               	movlw	0
  5766  0019B4  6E06               	movwf	(___fladd@a+1)^0,c
  5767  0019B6  0E00               	movlw	0
  5768  0019B8  6E07               	movwf	(___fladd@a+2)^0,c
  5769  0019BA  0E00               	movlw	0
  5770  0019BC  6E08               	movwf	(___fladd@a+3)^0,c
  5771  0019BE                     i2l2722:
  5772  0019BE  8E07               	bsf	(___fladd@a+2)^0,7,c
  5773  0019C0  0E00               	movlw	0
  5774  0019C2  6E08               	movwf	(___fladd@a+3)^0,c
  5775  0019C4  EFEC  F00C         	goto	i2l2728
  5776  0019C8                     i2l2726:
  5777  0019C8  0E00               	movlw	0
  5778  0019CA  6E05               	movwf	___fladd@a^0,c
  5779  0019CC  0E00               	movlw	0
  5780  0019CE  6E06               	movwf	(___fladd@a+1)^0,c
  5781  0019D0  0E00               	movlw	0
  5782  0019D2  6E07               	movwf	(___fladd@a+2)^0,c
  5783  0019D4  0E00               	movlw	0
  5784  0019D6  6E08               	movwf	(___fladd@a+3)^0,c
  5785  0019D8                     i2l2728:
  5786  0019D8  500F               	movf	___fladd@bexp^0,w,c
  5787  0019DA  5C0E               	subwf	___fladd@aexp^0,w,c
  5788  0019DC  B0D8               	btfsc	status,0,c
  5789  0019DE  EFF3  F00C         	goto	i2u256_41
  5790  0019E2  EFF5  F00C         	goto	i2u256_40
  5791  0019E6                     i2u256_41:
  5792  0019E6  EF1C  F00D         	goto	i2l2764
  5793  0019EA                     i2u256_40:
  5794  0019EA  AC0D               	btfss	___fladd@signs^0,6,c
  5795  0019EC  EFFA  F00C         	goto	i2u257_41
  5796  0019F0  EFFC  F00C         	goto	i2u257_40
  5797  0019F4                     i2u257_41:
  5798  0019F4  EFFE  F00C         	goto	i2l2734
  5799  0019F8                     i2u257_40:
  5800  0019F8  0E80               	movlw	128
  5801  0019FA  1A0D               	xorwf	___fladd@signs^0,f,c
  5802  0019FC                     i2l2734:
  5803  0019FC  C00F  F010         	movff	___fladd@bexp,___fladd@grs
  5804  001A00  C00E  F00F         	movff	___fladd@aexp,___fladd@bexp
  5805  001A04  C010  F00E         	movff	___fladd@grs,___fladd@aexp
  5806  001A08  C001  F010         	movff	___fladd@b,___fladd@grs
  5807  001A0C  C005  F001         	movff	___fladd@a,___fladd@b
  5808  001A10  C010  F005         	movff	___fladd@grs,___fladd@a
  5809  001A14  C002  F010         	movff	___fladd@b+1,___fladd@grs
  5810  001A18  C006  F002         	movff	___fladd@a+1,___fladd@b+1
  5811  001A1C  C010  F006         	movff	___fladd@grs,___fladd@a+1
  5812  001A20  C003  F010         	movff	___fladd@b+2,___fladd@grs
  5813  001A24  C007  F003         	movff	___fladd@a+2,___fladd@b+2
  5814  001A28  C010  F007         	movff	___fladd@grs,___fladd@a+2
  5815  001A2C  C004  F010         	movff	___fladd@b+3,___fladd@grs
  5816  001A30  C008  F004         	movff	___fladd@a+3,___fladd@b+3
  5817  001A34  C010  F008         	movff	___fladd@grs,___fladd@a+3
  5818  001A38                     i2l2764:
  5819  001A38  0E00               	movlw	0
  5820  001A3A  6E10               	movwf	___fladd@grs^0,c
  5821  001A3C  500F               	movf	___fladd@bexp^0,w,c
  5822  001A3E  C00E  F009         	movff	___fladd@aexp,??___fladd
  5823  001A42  6A0A               	clrf	(??___fladd+1)^0,c
  5824  001A44  5E09               	subwf	??___fladd^0,f,c
  5825  001A46  0E00               	movlw	0
  5826  001A48  5A0A               	subwfb	(??___fladd+1)^0,f,c
  5827  001A4A  BE0A               	btfsc	(??___fladd+1)^0,7,c
  5828  001A4C  EF31  F00D         	goto	i2u258_41
  5829  001A50  500A               	movf	(??___fladd+1)^0,w,c
  5830  001A52  E109               	bnz	i2u258_40
  5831  001A54  0E1A               	movlw	26
  5832  001A56  5C09               	subwf	??___fladd^0,w,c
  5833  001A58  A0D8               	btfss	status,0,c
  5834  001A5A  EF31  F00D         	goto	i2u258_41
  5835  001A5E  EF33  F00D         	goto	i2u258_40
  5836  001A62                     i2u258_41:
  5837  001A62  EF6A  F00D         	goto	i2l659
  5838  001A66                     i2u258_40:
  5839  001A66  5001               	movf	___fladd@b^0,w,c
  5840  001A68  1002               	iorwf	(___fladd@b+1)^0,w,c
  5841  001A6A  1003               	iorwf	(___fladd@b+2)^0,w,c
  5842  001A6C  1004               	iorwf	(___fladd@b+3)^0,w,c
  5843  001A6E  A4D8               	btfss	status,2,c
  5844  001A70  EF3C  F00D         	goto	i2u259_41
  5845  001A74  EF3F  F00D         	goto	i2u259_40
  5846  001A78                     i2u259_41:
  5847  001A78  0E01               	movlw	1
  5848  001A7A  EF40  F00D         	goto	i2u260_40
  5849  001A7E                     i2u259_40:
  5850  001A7E  0E00               	movlw	0
  5851  001A80                     i2u260_40:
  5852  001A80  6E10               	movwf	___fladd@grs^0,c
  5853  001A82  0E00               	movlw	0
  5854  001A84  6E01               	movwf	___fladd@b^0,c
  5855  001A86  0E00               	movlw	0
  5856  001A88  6E02               	movwf	(___fladd@b+1)^0,c
  5857  001A8A  0E00               	movlw	0
  5858  001A8C  6E03               	movwf	(___fladd@b+2)^0,c
  5859  001A8E  0E00               	movlw	0
  5860  001A90  6E04               	movwf	(___fladd@b+3)^0,c
  5861  001A92  C00E  F00F         	movff	___fladd@aexp,___fladd@bexp
  5862  001A96  EF73  F00D         	goto	i2l658
  5863  001A9A                     i2l660:
  5864  001A9A  A010               	btfss	___fladd@grs^0,0,c
  5865  001A9C  EF52  F00D         	goto	i2u261_41
  5866  001AA0  EF54  F00D         	goto	i2u261_40
  5867  001AA4                     i2u261_41:
  5868  001AA4  EF5A  F00D         	goto	i2l2776
  5869  001AA8                     i2u261_40:
  5870  001AA8  90D8               	bcf	status,0,c
  5871  001AAA  3010               	rrcf	___fladd@grs^0,w,c
  5872  001AAC  0901               	iorlw	1
  5873  001AAE  6E10               	movwf	___fladd@grs^0,c
  5874  001AB0  EF5C  F00D         	goto	i2l2778
  5875  001AB4                     i2l2776:
  5876  001AB4  90D8               	bcf	status,0,c
  5877  001AB6  3210               	rrcf	___fladd@grs^0,f,c
  5878  001AB8                     i2l2778:
  5879  001AB8  A001               	btfss	___fladd@b^0,0,c
  5880  001ABA  EF61  F00D         	goto	i2u262_41
  5881  001ABE  EF63  F00D         	goto	i2u262_40
  5882  001AC2                     i2u262_41:
  5883  001AC2  EF64  F00D         	goto	i2l2782
  5884  001AC6                     i2u262_40:
  5885  001AC6  8E10               	bsf	___fladd@grs^0,7,c
  5886  001AC8                     i2l2782:
  5887  001AC8  3404               	rlcf	(___fladd@b+3)^0,w,c
  5888  001ACA  3204               	rrcf	(___fladd@b+3)^0,f,c
  5889  001ACC  3203               	rrcf	(___fladd@b+2)^0,f,c
  5890  001ACE  3202               	rrcf	(___fladd@b+1)^0,f,c
  5891  001AD0  3201               	rrcf	___fladd@b^0,f,c
  5892  001AD2  2A0F               	incf	___fladd@bexp^0,f,c
  5893  001AD4                     i2l659:
  5894  001AD4  500E               	movf	___fladd@aexp^0,w,c
  5895  001AD6  5C0F               	subwf	___fladd@bexp^0,w,c
  5896  001AD8  A0D8               	btfss	status,0,c
  5897  001ADA  EF71  F00D         	goto	i2u263_41
  5898  001ADE  EF73  F00D         	goto	i2u263_40
  5899  001AE2                     i2u263_41:
  5900  001AE2  EF4D  F00D         	goto	i2l660
  5901  001AE6                     i2u263_40:
  5902  001AE6                     i2l658:
  5903  001AE6  BC0D               	btfsc	___fladd@signs^0,6,c
  5904  001AE8  EF78  F00D         	goto	i2u264_41
  5905  001AEC  EF7A  F00D         	goto	i2u264_40
  5906  001AF0                     i2u264_41:
  5907  001AF0  EFBA  F00D         	goto	i2l2810
  5908  001AF4                     i2u264_40:
  5909  001AF4  500F               	movf	___fladd@bexp^0,w,c
  5910  001AF6  A4D8               	btfss	status,2,c
  5911  001AF8  EF80  F00D         	goto	i2u265_41
  5912  001AFC  EF82  F00D         	goto	i2u265_40
  5913  001B00                     i2u265_41:
  5914  001B00  EF8C  F00D         	goto	i2l2792
  5915  001B04                     i2u265_40:
  5916  001B04  0E00               	movlw	0
  5917  001B06  6E01               	movwf	?___fladd^0,c
  5918  001B08  0E00               	movlw	0
  5919  001B0A  6E02               	movwf	(?___fladd+1)^0,c
  5920  001B0C  0E00               	movlw	0
  5921  001B0E  6E03               	movwf	(?___fladd+2)^0,c
  5922  001B10  0E00               	movlw	0
  5923  001B12  6E04               	movwf	(?___fladd+3)^0,c
  5924  001B14  EFDB  F00E         	goto	i2l667
  5925  001B18                     i2l2792:
  5926  001B18  5005               	movf	___fladd@a^0,w,c
  5927  001B1A  2601               	addwf	___fladd@b^0,f,c
  5928  001B1C  5006               	movf	(___fladd@a+1)^0,w,c
  5929  001B1E  2202               	addwfc	(___fladd@b+1)^0,f,c
  5930  001B20  5007               	movf	(___fladd@a+2)^0,w,c
  5931  001B22  2203               	addwfc	(___fladd@b+2)^0,f,c
  5932  001B24  5008               	movf	(___fladd@a+3)^0,w,c
  5933  001B26  2204               	addwfc	(___fladd@b+3)^0,f,c
  5934  001B28  A004               	btfss	(___fladd@b+3)^0,0,c
  5935  001B2A  EF99  F00D         	goto	i2u266_41
  5936  001B2E  EF9B  F00D         	goto	i2u266_40
  5937  001B32                     i2u266_41:
  5938  001B32  EF47  F00E         	goto	i2l2846
  5939  001B36                     i2u266_40:
  5940  001B36  A010               	btfss	___fladd@grs^0,0,c
  5941  001B38  EFA0  F00D         	goto	i2u267_41
  5942  001B3C  EFA2  F00D         	goto	i2u267_40
  5943  001B40                     i2u267_41:
  5944  001B40  EFA8  F00D         	goto	i2l2800
  5945  001B44                     i2u267_40:
  5946  001B44  90D8               	bcf	status,0,c
  5947  001B46  3010               	rrcf	___fladd@grs^0,w,c
  5948  001B48  0901               	iorlw	1
  5949  001B4A  6E10               	movwf	___fladd@grs^0,c
  5950  001B4C  EFAA  F00D         	goto	i2l2802
  5951  001B50                     i2l2800:
  5952  001B50  90D8               	bcf	status,0,c
  5953  001B52  3210               	rrcf	___fladd@grs^0,f,c
  5954  001B54                     i2l2802:
  5955  001B54  A001               	btfss	___fladd@b^0,0,c
  5956  001B56  EFAF  F00D         	goto	i2u268_41
  5957  001B5A  EFB1  F00D         	goto	i2u268_40
  5958  001B5E                     i2u268_41:
  5959  001B5E  EFB2  F00D         	goto	i2l2806
  5960  001B62                     i2u268_40:
  5961  001B62  8E10               	bsf	___fladd@grs^0,7,c
  5962  001B64                     i2l2806:
  5963  001B64  3404               	rlcf	(___fladd@b+3)^0,w,c
  5964  001B66  3204               	rrcf	(___fladd@b+3)^0,f,c
  5965  001B68  3203               	rrcf	(___fladd@b+2)^0,f,c
  5966  001B6A  3202               	rrcf	(___fladd@b+1)^0,f,c
  5967  001B6C  3201               	rrcf	___fladd@b^0,f,c
  5968  001B6E  2A0F               	incf	___fladd@bexp^0,f,c
  5969  001B70  EF47  F00E         	goto	i2l2846
  5970  001B74                     i2l2810:
  5971  001B74  5005               	movf	___fladd@a^0,w,c
  5972  001B76  5C01               	subwf	___fladd@b^0,w,c
  5973  001B78  5006               	movf	(___fladd@a+1)^0,w,c
  5974  001B7A  5802               	subwfb	(___fladd@b+1)^0,w,c
  5975  001B7C  5007               	movf	(___fladd@a+2)^0,w,c
  5976  001B7E  5803               	subwfb	(___fladd@b+2)^0,w,c
  5977  001B80  5004               	movf	(___fladd@b+3)^0,w,c
  5978  001B82  0A80               	xorlw	128
  5979  001B84  6E09               	movwf	??___fladd^0,c
  5980  001B86  5008               	movf	(___fladd@a+3)^0,w,c
  5981  001B88  0A80               	xorlw	128
  5982  001B8A  5809               	subwfb	??___fladd^0,w,c
  5983  001B8C  B0D8               	btfsc	status,0,c
  5984  001B8E  EFCB  F00D         	goto	i2u269_41
  5985  001B92  EFCD  F00D         	goto	i2u269_40
  5986  001B96                     i2u269_41:
  5987  001B96  EFF8  F00D         	goto	i2l2820
  5988  001B9A                     i2u269_40:
  5989  001B9A  5001               	movf	___fladd@b^0,w,c
  5990  001B9C  5C05               	subwf	___fladd@a^0,w,c
  5991  001B9E  6E09               	movwf	??___fladd^0,c
  5992  001BA0  5002               	movf	(___fladd@b+1)^0,w,c
  5993  001BA2  5806               	subwfb	(___fladd@a+1)^0,w,c
  5994  001BA4  6E0A               	movwf	(??___fladd+1)^0,c
  5995  001BA6  5003               	movf	(___fladd@b+2)^0,w,c
  5996  001BA8  5807               	subwfb	(___fladd@a+2)^0,w,c
  5997  001BAA  6E0B               	movwf	(??___fladd+2)^0,c
  5998  001BAC  5004               	movf	(___fladd@b+3)^0,w,c
  5999  001BAE  5808               	subwfb	(___fladd@a+3)^0,w,c
  6000  001BB0  6E0C               	movwf	(??___fladd+3)^0,c
  6001  001BB2  0EFF               	movlw	255
  6002  001BB4  2409               	addwf	??___fladd^0,w,c
  6003  001BB6  6E01               	movwf	___fladd@b^0,c
  6004  001BB8  0EFF               	movlw	255
  6005  001BBA  200A               	addwfc	(??___fladd+1)^0,w,c
  6006  001BBC  6E02               	movwf	(___fladd@b+1)^0,c
  6007  001BBE  0EFF               	movlw	255
  6008  001BC0  200B               	addwfc	(??___fladd+2)^0,w,c
  6009  001BC2  6E03               	movwf	(___fladd@b+2)^0,c
  6010  001BC4  0EFF               	movlw	255
  6011  001BC6  200C               	addwfc	(??___fladd+3)^0,w,c
  6012  001BC8  6E04               	movwf	(___fladd@b+3)^0,c
  6013  001BCA  0E80               	movlw	128
  6014  001BCC  1A0D               	xorwf	___fladd@signs^0,f,c
  6015  001BCE  6C10               	negf	___fladd@grs^0,c
  6016  001BD0  5010               	movf	___fladd@grs^0,w,c
  6017  001BD2  A4D8               	btfss	status,2,c
  6018  001BD4  EFEE  F00D         	goto	i2u270_41
  6019  001BD8  EFF0  F00D         	goto	i2u270_40
  6020  001BDC                     i2u270_41:
  6021  001BDC  EF00  F00E         	goto	i2l675
  6022  001BE0                     i2u270_40:
  6023  001BE0  0E01               	movlw	1
  6024  001BE2  2601               	addwf	___fladd@b^0,f,c
  6025  001BE4  0E00               	movlw	0
  6026  001BE6  2202               	addwfc	(___fladd@b+1)^0,f,c
  6027  001BE8  2203               	addwfc	(___fladd@b+2)^0,f,c
  6028  001BEA  2204               	addwfc	(___fladd@b+3)^0,f,c
  6029  001BEC  EF00  F00E         	goto	i2l675
  6030  001BF0                     i2l2820:
  6031  001BF0  5005               	movf	___fladd@a^0,w,c
  6032  001BF2  5E01               	subwf	___fladd@b^0,f,c
  6033  001BF4  5006               	movf	(___fladd@a+1)^0,w,c
  6034  001BF6  5A02               	subwfb	(___fladd@b+1)^0,f,c
  6035  001BF8  5007               	movf	(___fladd@a+2)^0,w,c
  6036  001BFA  5A03               	subwfb	(___fladd@b+2)^0,f,c
  6037  001BFC  5008               	movf	(___fladd@a+3)^0,w,c
  6038  001BFE  5A04               	subwfb	(___fladd@b+3)^0,f,c
  6039  001C00                     i2l675:
  6040  001C00  5001               	movf	___fladd@b^0,w,c
  6041  001C02  1002               	iorwf	(___fladd@b+1)^0,w,c
  6042  001C04  1003               	iorwf	(___fladd@b+2)^0,w,c
  6043  001C06  1004               	iorwf	(___fladd@b+3)^0,w,c
  6044  001C08  A4D8               	btfss	status,2,c
  6045  001C0A  EF09  F00E         	goto	i2u271_41
  6046  001C0E  EF0B  F00E         	goto	i2u271_40
  6047  001C12                     i2u271_41:
  6048  001C12  EF40  F00E         	goto	i2l2844
  6049  001C16                     i2u271_40:
  6050  001C16  5010               	movf	___fladd@grs^0,w,c
  6051  001C18  A4D8               	btfss	status,2,c
  6052  001C1A  EF11  F00E         	goto	i2u272_41
  6053  001C1E  EF13  F00E         	goto	i2u272_40
  6054  001C22                     i2u272_41:
  6055  001C22  EF40  F00E         	goto	i2l2844
  6056  001C26                     i2u272_40:
  6057  001C26  0E00               	movlw	0
  6058  001C28  6E01               	movwf	?___fladd^0,c
  6059  001C2A  0E00               	movlw	0
  6060  001C2C  6E02               	movwf	(?___fladd+1)^0,c
  6061  001C2E  0E00               	movlw	0
  6062  001C30  6E03               	movwf	(?___fladd+2)^0,c
  6063  001C32  0E00               	movlw	0
  6064  001C34  6E04               	movwf	(?___fladd+3)^0,c
  6065  001C36  EFDB  F00E         	goto	i2l667
  6066  001C3A                     i2l2828:
  6067  001C3A  90D8               	bcf	status,0,c
  6068  001C3C  3601               	rlcf	___fladd@b^0,f,c
  6069  001C3E  3602               	rlcf	(___fladd@b+1)^0,f,c
  6070  001C40  3603               	rlcf	(___fladd@b+2)^0,f,c
  6071  001C42  3604               	rlcf	(___fladd@b+3)^0,f,c
  6072  001C44  AE10               	btfss	___fladd@grs^0,7,c
  6073  001C46  EF27  F00E         	goto	i2u273_41
  6074  001C4A  EF29  F00E         	goto	i2u273_40
  6075  001C4E                     i2u273_41:
  6076  001C4E  EF2A  F00E         	goto	i2l2834
  6077  001C52                     i2u273_40:
  6078  001C52  8001               	bsf	___fladd@b^0,0,c
  6079  001C54                     i2l2834:
  6080  001C54  A010               	btfss	___fladd@grs^0,0,c
  6081  001C56  EF2F  F00E         	goto	i2u274_41
  6082  001C5A  EF31  F00E         	goto	i2u274_40
  6083  001C5E                     i2u274_41:
  6084  001C5E  EF35  F00E         	goto	i2l2838
  6085  001C62                     i2u274_40:
  6086  001C62  80D8               	bsf	status,0,c
  6087  001C64  3610               	rlcf	___fladd@grs^0,f,c
  6088  001C66  EF37  F00E         	goto	i2l2840
  6089  001C6A                     i2l2838:
  6090  001C6A  90D8               	bcf	status,0,c
  6091  001C6C  3610               	rlcf	___fladd@grs^0,f,c
  6092  001C6E                     i2l2840:
  6093  001C6E  500F               	movf	___fladd@bexp^0,w,c
  6094  001C70  B4D8               	btfsc	status,2,c
  6095  001C72  EF3D  F00E         	goto	i2u275_41
  6096  001C76  EF3F  F00E         	goto	i2u275_40
  6097  001C7A                     i2u275_41:
  6098  001C7A  EF40  F00E         	goto	i2l2844
  6099  001C7E                     i2u275_40:
  6100  001C7E  060F               	decf	___fladd@bexp^0,f,c
  6101  001C80                     i2l2844:
  6102  001C80  AE03               	btfss	(___fladd@b+2)^0,7,c
  6103  001C82  EF45  F00E         	goto	i2u276_41
  6104  001C86  EF47  F00E         	goto	i2u276_40
  6105  001C8A                     i2u276_41:
  6106  001C8A  EF1D  F00E         	goto	i2l2828
  6107  001C8E                     i2u276_40:
  6108  001C8E                     i2l2846:
  6109  001C8E  0E00               	movlw	0
  6110  001C90  6E0E               	movwf	___fladd@aexp^0,c
  6111  001C92  AE10               	btfss	___fladd@grs^0,7,c
  6112  001C94  EF4E  F00E         	goto	i2u277_41
  6113  001C98  EF50  F00E         	goto	i2u277_40
  6114  001C9C                     i2u277_41:
  6115  001C9C  EF68  F00E         	goto	i2l684
  6116  001CA0                     i2u277_40:
  6117  001CA0  C010  F009         	movff	___fladd@grs,??___fladd
  6118  001CA4  0E7F               	movlw	127
  6119  001CA6  1609               	andwf	??___fladd^0,f,c
  6120  001CA8  B4D8               	btfsc	status,2,c
  6121  001CAA  EF59  F00E         	goto	i2u278_41
  6122  001CAE  EF5B  F00E         	goto	i2u278_40
  6123  001CB2                     i2u278_41:
  6124  001CB2  EF5F  F00E         	goto	i2l685
  6125  001CB6                     i2u278_40:
  6126  001CB6                     i2l2852:
  6127  001CB6  0E01               	movlw	1
  6128  001CB8  6E0E               	movwf	___fladd@aexp^0,c
  6129  001CBA  EF68  F00E         	goto	i2l684
  6130  001CBE                     i2l685:
  6131  001CBE  A001               	btfss	___fladd@b^0,0,c
  6132  001CC0  EF64  F00E         	goto	i2u279_41
  6133  001CC4  EF66  F00E         	goto	i2u279_40
  6134  001CC8                     i2u279_41:
  6135  001CC8  EF68  F00E         	goto	i2l684
  6136  001CCC                     i2u279_40:
  6137  001CCC  EF5B  F00E         	goto	i2l2852
  6138  001CD0                     i2l684:
  6139  001CD0  500E               	movf	___fladd@aexp^0,w,c
  6140  001CD2  B4D8               	btfsc	status,2,c
  6141  001CD4  EF6E  F00E         	goto	i2u280_41
  6142  001CD8  EF70  F00E         	goto	i2u280_40
  6143  001CDC                     i2u280_41:
  6144  001CDC  EF9B  F00E         	goto	i2l2864
  6145  001CE0                     i2u280_40:
  6146  001CE0  0E01               	movlw	1
  6147  001CE2  2601               	addwf	___fladd@b^0,f,c
  6148  001CE4  0E00               	movlw	0
  6149  001CE6  2202               	addwfc	(___fladd@b+1)^0,f,c
  6150  001CE8  2203               	addwfc	(___fladd@b+2)^0,f,c
  6151  001CEA  2204               	addwfc	(___fladd@b+3)^0,f,c
  6152  001CEC  A004               	btfss	(___fladd@b+3)^0,0,c
  6153  001CEE  EF7B  F00E         	goto	i2u281_41
  6154  001CF2  EF7D  F00E         	goto	i2u281_40
  6155  001CF6                     i2u281_41:
  6156  001CF6  EF9B  F00E         	goto	i2l2864
  6157  001CFA                     i2u281_40:
  6158  001CFA  C001  F009         	movff	___fladd@b,??___fladd
  6159  001CFE  C002  F00A         	movff	___fladd@b+1,??___fladd+1
  6160  001D02  C003  F00B         	movff	___fladd@b+2,??___fladd+2
  6161  001D06  C004  F00C         	movff	___fladd@b+3,??___fladd+3
  6162  001D0A  340C               	rlcf	(??___fladd+3)^0,w,c
  6163  001D0C  320C               	rrcf	(??___fladd+3)^0,f,c
  6164  001D0E  320B               	rrcf	(??___fladd+2)^0,f,c
  6165  001D10  320A               	rrcf	(??___fladd+1)^0,f,c
  6166  001D12  3209               	rrcf	??___fladd^0,f,c
  6167  001D14  C009  F001         	movff	??___fladd,___fladd@b
  6168  001D18  C00A  F002         	movff	??___fladd+1,___fladd@b+1
  6169  001D1C  C00B  F003         	movff	??___fladd+2,___fladd@b+2
  6170  001D20  C00C  F004         	movff	??___fladd+3,___fladd@b+3
  6171  001D24  280F               	incf	___fladd@bexp^0,w,c
  6172  001D26  B4D8               	btfsc	status,2,c
  6173  001D28  EF98  F00E         	goto	i2u282_41
  6174  001D2C  EF9A  F00E         	goto	i2u282_40
  6175  001D30                     i2u282_41:
  6176  001D30  EF9B  F00E         	goto	i2l2864
  6177  001D34                     i2u282_40:
  6178  001D34  2A0F               	incf	___fladd@bexp^0,f,c
  6179  001D36                     i2l2864:
  6180  001D36  280F               	incf	___fladd@bexp^0,w,c
  6181  001D38  B4D8               	btfsc	status,2,c
  6182  001D3A  EFA1  F00E         	goto	i2u283_41
  6183  001D3E  EFA3  F00E         	goto	i2u283_40
  6184  001D42                     i2u283_41:
  6185  001D42  EFAB  F00E         	goto	i2l2868
  6186  001D46                     i2u283_40:
  6187  001D46  500F               	movf	___fladd@bexp^0,w,c
  6188  001D48  A4D8               	btfss	status,2,c
  6189  001D4A  EFA9  F00E         	goto	i2u284_41
  6190  001D4E  EFAB  F00E         	goto	i2u284_40
  6191  001D52                     i2u284_41:
  6192  001D52  EFBD  F00E         	goto	i2l2872
  6193  001D56                     i2u284_40:
  6194  001D56                     i2l2868:
  6195  001D56  0E00               	movlw	0
  6196  001D58  6E01               	movwf	___fladd@b^0,c
  6197  001D5A  0E00               	movlw	0
  6198  001D5C  6E02               	movwf	(___fladd@b+1)^0,c
  6199  001D5E  0E00               	movlw	0
  6200  001D60  6E03               	movwf	(___fladd@b+2)^0,c
  6201  001D62  0E00               	movlw	0
  6202  001D64  6E04               	movwf	(___fladd@b+3)^0,c
  6203  001D66  500F               	movf	___fladd@bexp^0,w,c
  6204  001D68  A4D8               	btfss	status,2,c
  6205  001D6A  EFB9  F00E         	goto	i2u285_41
  6206  001D6E  EFBB  F00E         	goto	i2u285_40
  6207  001D72                     i2u285_41:
  6208  001D72  EFBD  F00E         	goto	i2l2872
  6209  001D76                     i2u285_40:
  6210  001D76  0E00               	movlw	0
  6211  001D78  6E0D               	movwf	___fladd@signs^0,c
  6212  001D7A                     i2l2872:
  6213  001D7A  A00F               	btfss	___fladd@bexp^0,0,c
  6214  001D7C  EFC2  F00E         	goto	i2u286_41
  6215  001D80  EFC4  F00E         	goto	i2u286_40
  6216  001D84                     i2u286_41:
  6217  001D84  EFC7  F00E         	goto	i2l2876
  6218  001D88                     i2u286_40:
  6219  001D88  8E03               	bsf	(___fladd@b+2)^0,7,c
  6220  001D8A  EFC8  F00E         	goto	i2l2878
  6221  001D8E                     i2l2876:
  6222  001D8E  9E03               	bcf	(___fladd@b+2)^0,7,c
  6223  001D90                     i2l2878:
  6224  001D90  90D8               	bcf	status,0,c
  6225  001D92  300F               	rrcf	___fladd@bexp^0,w,c
  6226  001D94  6E04               	movwf	(___fladd@b+3)^0,c
  6227  001D96  AE0D               	btfss	___fladd@signs^0,7,c
  6228  001D98  EFD0  F00E         	goto	i2u287_41
  6229  001D9C  EFD2  F00E         	goto	i2u287_40
  6230  001DA0                     i2u287_41:
  6231  001DA0  EFD3  F00E         	goto	i2l2884
  6232  001DA4                     i2u287_40:
  6233  001DA4  8E04               	bsf	(___fladd@b+3)^0,7,c
  6234  001DA6                     i2l2884:
  6235  001DA6  C001  F001         	movff	___fladd@b,?___fladd
  6236  001DAA  C002  F002         	movff	___fladd@b+1,?___fladd+1
  6237  001DAE  C003  F003         	movff	___fladd@b+2,?___fladd+2
  6238  001DB2  C004  F004         	movff	___fladd@b+3,?___fladd+3
  6239  001DB6                     i2l667:
  6240  001DB6  0012               	return		;funcret
  6241  001DB8                     __end_of___fladd:
  6242                           	callstack 0
  6243                           
  6244 ;; *************** function ___flneg *****************
  6245 ;; Defined at:
  6246 ;;		line 15 in file "C:\Program Files\Microchip\xc8\v2.20\pic\sources\c99\common\flneg.c"
  6247 ;; Parameters:    Size  Location     Type
  6248 ;;  f1              4    0[COMRAM] unsigned char 
  6249 ;; Auto vars:     Size  Location     Type
  6250 ;;		None
  6251 ;; Return value:  Size  Location     Type
  6252 ;;                  4    0[COMRAM] unsigned char 
  6253 ;; Registers used:
  6254 ;;		wreg, status,2, status,0
  6255 ;; Tracked objects:
  6256 ;;		On entry : 0/0
  6257 ;;		On exit  : 0/0
  6258 ;;		Unchanged: 0/0
  6259 ;; Data sizes:     COMRAM   BANK0   BANK1   BANK2   BANK3   BANK4   BANK5   BANK6   BANK7
  6260 ;;      Params:         4       0       0       0       0       0       0       0       0
  6261 ;;      Locals:         0       0       0       0       0       0       0       0       0
  6262 ;;      Temps:          0       0       0       0       0       0       0       0       0
  6263 ;;      Totals:         4       0       0       0       0       0       0       0       0
  6264 ;;Total ram usage:        4 bytes
  6265 ;; Hardware stack levels used:    1
  6266 ;; This function calls:
  6267 ;;		Nothing
  6268 ;; This function is called by:
  6269 ;;		_efgtoa
  6270 ;; This function uses a non-reentrant model
  6271 ;;
  6272                           
  6273                           	psect	text26
  6274  003736                     __ptext26:
  6275                           	callstack 0
  6276  003736                     ___flneg:
  6277                           	callstack 22
  6278  003736  5001               	movf	___flneg@f1^0,w,c
  6279  003738  1002               	iorwf	(___flneg@f1+1)^0,w,c
  6280  00373A  1003               	iorwf	(___flneg@f1+2)^0,w,c
  6281  00373C  1004               	iorwf	(___flneg@f1+3)^0,w,c
  6282  00373E  B4D8               	btfsc	status,2,c
  6283  003740  EFA4  F01B         	goto	i2u354_41
  6284  003744  EFA6  F01B         	goto	i2u354_40
  6285  003748                     i2u354_41:
  6286  003748  EFAE  F01B         	goto	i2l3312
  6287  00374C                     i2u354_40:
  6288  00374C  0E00               	movlw	0
  6289  00374E  1A01               	xorwf	___flneg@f1^0,f,c
  6290  003750  0E00               	movlw	0
  6291  003752  1A02               	xorwf	(___flneg@f1+1)^0,f,c
  6292  003754  0E00               	movlw	0
  6293  003756  1A03               	xorwf	(___flneg@f1+2)^0,f,c
  6294  003758  0E80               	movlw	128
  6295  00375A  1A04               	xorwf	(___flneg@f1+3)^0,f,c
  6296  00375C                     i2l3312:
  6297  00375C  C001  F001         	movff	___flneg@f1,?___flneg
  6298  003760  C002  F002         	movff	___flneg@f1+1,?___flneg+1
  6299  003764  C003  F003         	movff	___flneg@f1+2,?___flneg+2
  6300  003768  C004  F004         	movff	___flneg@f1+3,?___flneg+3
  6301  00376C  0012               	return		;funcret
  6302  00376E                     __end_of___flneg:
  6303                           	callstack 0
  6304                           
  6305 ;; *************** function ___flmul *****************
  6306 ;; Defined at:
  6307 ;;		line 8 in file "C:\Program Files\Microchip\xc8\v2.20\pic\sources\c99\common\sprcmul.c"
  6308 ;; Parameters:    Size  Location     Type
  6309 ;;  b               4   14[COMRAM] unsigned char 
  6310 ;;  a               4   18[COMRAM] unsigned char 
  6311 ;; Auto vars:     Size  Location     Type
  6312 ;;  prod            4   33[COMRAM] struct .
  6313 ;;  grs             4   27[COMRAM] unsigned long 
  6314 ;;  temp            2   37[COMRAM] struct .
  6315 ;;  bexp            1   32[COMRAM] unsigned char 
  6316 ;;  aexp            1   31[COMRAM] unsigned char 
  6317 ;;  sign            1   26[COMRAM] unsigned char 
  6318 ;; Return value:  Size  Location     Type
  6319 ;;                  4   14[COMRAM] unsigned char 
  6320 ;; Registers used:
  6321 ;;		wreg, status,2, status,0, prodl, prodh
  6322 ;; Tracked objects:
  6323 ;;		On entry : 0/0
  6324 ;;		On exit  : 0/0
  6325 ;;		Unchanged: 0/0
  6326 ;; Data sizes:     COMRAM   BANK0   BANK1   BANK2   BANK3   BANK4   BANK5   BANK6   BANK7
  6327 ;;      Params:         8       0       0       0       0       0       0       0       0
  6328 ;;      Locals:        13       0       0       0       0       0       0       0       0
  6329 ;;      Temps:          4       0       0       0       0       0       0       0       0
  6330 ;;      Totals:        25       0       0       0       0       0       0       0       0
  6331 ;;Total ram usage:       25 bytes
  6332 ;; Hardware stack levels used:    1
  6333 ;; This function calls:
  6334 ;;		Nothing
  6335 ;; This function is called by:
  6336 ;;		_ADC_ISR
  6337 ;;		_efgtoa
  6338 ;; This function uses a non-reentrant model
  6339 ;;
  6340                           
  6341                           	psect	text27
  6342  001DB8                     __ptext27:
  6343                           	callstack 0
  6344  001DB8                     ___flmul:
  6345                           	callstack 22
  6346  001DB8  5012               	movf	(___flmul@b+3)^0,w,c
  6347  001DBA  0B80               	andlw	128
  6348  001DBC  6E1B               	movwf	___flmul@sign^0,c
  6349  001DBE  5012               	movf	(___flmul@b+3)^0,w,c
  6350  001DC0  2412               	addwf	(___flmul@b+3)^0,w,c
  6351  001DC2  6E21               	movwf	___flmul@bexp^0,c
  6352  001DC4  AE11               	btfss	(___flmul@b+2)^0,7,c
  6353  001DC6  EFE7  F00E         	goto	i2u315_41
  6354  001DCA  EFE9  F00E         	goto	i2u315_40
  6355  001DCE                     i2u315_41:
  6356  001DCE  EFEA  F00E         	goto	i2l3060
  6357  001DD2                     i2u315_40:
  6358  001DD2  8021               	bsf	___flmul@bexp^0,0,c
  6359  001DD4                     i2l3060:
  6360  001DD4  5021               	movf	___flmul@bexp^0,w,c
  6361  001DD6  B4D8               	btfsc	status,2,c
  6362  001DD8  EFF0  F00E         	goto	i2u316_41
  6363  001DDC  EFF2  F00E         	goto	i2u316_40
  6364  001DE0                     i2u316_41:
  6365  001DE0  EF05  F00F         	goto	i2l3068
  6366  001DE4                     i2u316_40:
  6367  001DE4  2821               	incf	___flmul@bexp^0,w,c
  6368  001DE6  A4D8               	btfss	status,2,c
  6369  001DE8  EFF8  F00E         	goto	i2u317_41
  6370  001DEC  EFFA  F00E         	goto	i2u317_40
  6371  001DF0                     i2u317_41:
  6372  001DF0  EF02  F00F         	goto	i2l3066
  6373  001DF4                     i2u317_40:
  6374  001DF4  0E00               	movlw	0
  6375  001DF6  6E0F               	movwf	___flmul@b^0,c
  6376  001DF8  0E00               	movlw	0
  6377  001DFA  6E10               	movwf	(___flmul@b+1)^0,c
  6378  001DFC  0E00               	movlw	0
  6379  001DFE  6E11               	movwf	(___flmul@b+2)^0,c
  6380  001E00  0E00               	movlw	0
  6381  001E02  6E12               	movwf	(___flmul@b+3)^0,c
  6382  001E04                     i2l3066:
  6383  001E04  8E11               	bsf	(___flmul@b+2)^0,7,c
  6384  001E06  EF0D  F00F         	goto	i2l3070
  6385  001E0A                     i2l3068:
  6386  001E0A  0E00               	movlw	0
  6387  001E0C  6E0F               	movwf	___flmul@b^0,c
  6388  001E0E  0E00               	movlw	0
  6389  001E10  6E10               	movwf	(___flmul@b+1)^0,c
  6390  001E12  0E00               	movlw	0
  6391  001E14  6E11               	movwf	(___flmul@b+2)^0,c
  6392  001E16  0E00               	movlw	0
  6393  001E18  6E12               	movwf	(___flmul@b+3)^0,c
  6394  001E1A                     i2l3070:
  6395  001E1A  5016               	movf	(___flmul@a+3)^0,w,c
  6396  001E1C  0B80               	andlw	128
  6397  001E1E  1A1B               	xorwf	___flmul@sign^0,f,c
  6398  001E20  5016               	movf	(___flmul@a+3)^0,w,c
  6399  001E22  2416               	addwf	(___flmul@a+3)^0,w,c
  6400  001E24  6E20               	movwf	___flmul@aexp^0,c
  6401  001E26  AE15               	btfss	(___flmul@a+2)^0,7,c
  6402  001E28  EF18  F00F         	goto	i2u318_41
  6403  001E2C  EF1A  F00F         	goto	i2u318_40
  6404  001E30                     i2u318_41:
  6405  001E30  EF1B  F00F         	goto	i2l3078
  6406  001E34                     i2u318_40:
  6407  001E34  8020               	bsf	___flmul@aexp^0,0,c
  6408  001E36                     i2l3078:
  6409  001E36  5020               	movf	___flmul@aexp^0,w,c
  6410  001E38  B4D8               	btfsc	status,2,c
  6411  001E3A  EF21  F00F         	goto	i2u319_41
  6412  001E3E  EF23  F00F         	goto	i2u319_40
  6413  001E42                     i2u319_41:
  6414  001E42  EF36  F00F         	goto	i2l3086
  6415  001E46                     i2u319_40:
  6416  001E46  2820               	incf	___flmul@aexp^0,w,c
  6417  001E48  A4D8               	btfss	status,2,c
  6418  001E4A  EF29  F00F         	goto	i2u320_41
  6419  001E4E  EF2B  F00F         	goto	i2u320_40
  6420  001E52                     i2u320_41:
  6421  001E52  EF33  F00F         	goto	i2l3084
  6422  001E56                     i2u320_40:
  6423  001E56  0E00               	movlw	0
  6424  001E58  6E13               	movwf	___flmul@a^0,c
  6425  001E5A  0E00               	movlw	0
  6426  001E5C  6E14               	movwf	(___flmul@a+1)^0,c
  6427  001E5E  0E00               	movlw	0
  6428  001E60  6E15               	movwf	(___flmul@a+2)^0,c
  6429  001E62  0E00               	movlw	0
  6430  001E64  6E16               	movwf	(___flmul@a+3)^0,c
  6431  001E66                     i2l3084:
  6432  001E66  8E15               	bsf	(___flmul@a+2)^0,7,c
  6433  001E68  EF3E  F00F         	goto	i2l744
  6434  001E6C                     i2l3086:
  6435  001E6C  0E00               	movlw	0
  6436  001E6E  6E13               	movwf	___flmul@a^0,c
  6437  001E70  0E00               	movlw	0
  6438  001E72  6E14               	movwf	(___flmul@a+1)^0,c
  6439  001E74  0E00               	movlw	0
  6440  001E76  6E15               	movwf	(___flmul@a+2)^0,c
  6441  001E78  0E00               	movlw	0
  6442  001E7A  6E16               	movwf	(___flmul@a+3)^0,c
  6443  001E7C                     i2l744:
  6444  001E7C  5020               	movf	___flmul@aexp^0,w,c
  6445  001E7E  B4D8               	btfsc	status,2,c
  6446  001E80  EF44  F00F         	goto	i2u321_41
  6447  001E84  EF46  F00F         	goto	i2u321_40
  6448  001E88                     i2u321_41:
  6449  001E88  EF4E  F00F         	goto	i2l3090
  6450  001E8C                     i2u321_40:
  6451  001E8C  5021               	movf	___flmul@bexp^0,w,c
  6452  001E8E  A4D8               	btfss	status,2,c
  6453  001E90  EF4C  F00F         	goto	i2u322_41
  6454  001E94  EF4E  F00F         	goto	i2u322_40
  6455  001E98                     i2u322_41:
  6456  001E98  EF58  F00F         	goto	i2l3094
  6457  001E9C                     i2u322_40:
  6458  001E9C                     i2l3090:
  6459  001E9C  0E00               	movlw	0
  6460  001E9E  6E0F               	movwf	?___flmul^0,c
  6461  001EA0  0E00               	movlw	0
  6462  001EA2  6E10               	movwf	(?___flmul+1)^0,c
  6463  001EA4  0E00               	movlw	0
  6464  001EA6  6E11               	movwf	(?___flmul+2)^0,c
  6465  001EA8  0E00               	movlw	0
  6466  001EAA  6E12               	movwf	(?___flmul+3)^0,c
  6467  001EAC  EFF0  F010         	goto	i2l748
  6468  001EB0                     i2l3094:
  6469  001EB0  5015               	movf	(___flmul@a+2)^0,w,c
  6470  001EB2  020F               	mulwf	___flmul@b^0,c
  6471  001EB4  CFF3 F026          	movff	prodl,___flmul@temp
  6472  001EB8  CFF4 F027          	movff	prodh,___flmul@temp+1
  6473  001EBC  5026               	movf	___flmul@temp^0,w,c
  6474  001EBE  6E1C               	movwf	___flmul@grs^0,c
  6475  001EC0  6A1D               	clrf	(___flmul@grs+1)^0,c
  6476  001EC2  6A1E               	clrf	(___flmul@grs+2)^0,c
  6477  001EC4  6A1F               	clrf	(___flmul@grs+3)^0,c
  6478  001EC6  5027               	movf	(___flmul@temp+1)^0,w,c
  6479  001EC8  6E22               	movwf	___flmul@prod^0,c
  6480  001ECA  6A23               	clrf	(___flmul@prod+1)^0,c
  6481  001ECC  6A24               	clrf	(___flmul@prod+2)^0,c
  6482  001ECE  6A25               	clrf	(___flmul@prod+3)^0,c
  6483  001ED0  5014               	movf	(___flmul@a+1)^0,w,c
  6484  001ED2  0210               	mulwf	(___flmul@b+1)^0,c
  6485  001ED4  CFF3 F026          	movff	prodl,___flmul@temp
  6486  001ED8  CFF4 F027          	movff	prodh,___flmul@temp+1
  6487  001EDC  5026               	movf	___flmul@temp^0,w,c
  6488  001EDE  261C               	addwf	___flmul@grs^0,f,c
  6489  001EE0  0E00               	movlw	0
  6490  001EE2  221D               	addwfc	(___flmul@grs+1)^0,f,c
  6491  001EE4  221E               	addwfc	(___flmul@grs+2)^0,f,c
  6492  001EE6  221F               	addwfc	(___flmul@grs+3)^0,f,c
  6493  001EE8  5027               	movf	(___flmul@temp+1)^0,w,c
  6494  001EEA  2622               	addwf	___flmul@prod^0,f,c
  6495  001EEC  0E00               	movlw	0
  6496  001EEE  2223               	addwfc	(___flmul@prod+1)^0,f,c
  6497  001EF0  2224               	addwfc	(___flmul@prod+2)^0,f,c
  6498  001EF2  2225               	addwfc	(___flmul@prod+3)^0,f,c
  6499  001EF4  5013               	movf	___flmul@a^0,w,c
  6500  001EF6  0211               	mulwf	(___flmul@b+2)^0,c
  6501  001EF8  CFF3 F026          	movff	prodl,___flmul@temp
  6502  001EFC  CFF4 F027          	movff	prodh,___flmul@temp+1
  6503  001F00  5026               	movf	___flmul@temp^0,w,c
  6504  001F02  261C               	addwf	___flmul@grs^0,f,c
  6505  001F04  0E00               	movlw	0
  6506  001F06  221D               	addwfc	(___flmul@grs+1)^0,f,c
  6507  001F08  221E               	addwfc	(___flmul@grs+2)^0,f,c
  6508  001F0A  221F               	addwfc	(___flmul@grs+3)^0,f,c
  6509  001F0C  5027               	movf	(___flmul@temp+1)^0,w,c
  6510  001F0E  2622               	addwf	___flmul@prod^0,f,c
  6511  001F10  0E00               	movlw	0
  6512  001F12  2223               	addwfc	(___flmul@prod+1)^0,f,c
  6513  001F14  2224               	addwfc	(___flmul@prod+2)^0,f,c
  6514  001F16  2225               	addwfc	(___flmul@prod+3)^0,f,c
  6515  001F18  C01E  F01F         	movff	___flmul@grs+2,___flmul@grs+3
  6516  001F1C  C01D  F01E         	movff	___flmul@grs+1,___flmul@grs+2
  6517  001F20  C01C  F01D         	movff	___flmul@grs,___flmul@grs+1
  6518  001F24  6A1C               	clrf	___flmul@grs^0,c
  6519  001F26  5013               	movf	___flmul@a^0,w,c
  6520  001F28  0210               	mulwf	(___flmul@b+1)^0,c
  6521  001F2A  CFF3 F026          	movff	prodl,___flmul@temp
  6522  001F2E  CFF4 F027          	movff	prodh,___flmul@temp+1
  6523  001F32  5026               	movf	___flmul@temp^0,w,c
  6524  001F34  261C               	addwf	___flmul@grs^0,f,c
  6525  001F36  5027               	movf	(___flmul@temp+1)^0,w,c
  6526  001F38  221D               	addwfc	(___flmul@grs+1)^0,f,c
  6527  001F3A  0E00               	movlw	0
  6528  001F3C  221E               	addwfc	(___flmul@grs+2)^0,f,c
  6529  001F3E  0E00               	movlw	0
  6530  001F40  221F               	addwfc	(___flmul@grs+3)^0,f,c
  6531  001F42  5014               	movf	(___flmul@a+1)^0,w,c
  6532  001F44  020F               	mulwf	___flmul@b^0,c
  6533  001F46  CFF3 F026          	movff	prodl,___flmul@temp
  6534  001F4A  CFF4 F027          	movff	prodh,___flmul@temp+1
  6535  001F4E  5026               	movf	___flmul@temp^0,w,c
  6536  001F50  261C               	addwf	___flmul@grs^0,f,c
  6537  001F52  5027               	movf	(___flmul@temp+1)^0,w,c
  6538  001F54  221D               	addwfc	(___flmul@grs+1)^0,f,c
  6539  001F56  0E00               	movlw	0
  6540  001F58  221E               	addwfc	(___flmul@grs+2)^0,f,c
  6541  001F5A  0E00               	movlw	0
  6542  001F5C  221F               	addwfc	(___flmul@grs+3)^0,f,c
  6543  001F5E  C01E  F01F         	movff	___flmul@grs+2,___flmul@grs+3
  6544  001F62  C01D  F01E         	movff	___flmul@grs+1,___flmul@grs+2
  6545  001F66  C01C  F01D         	movff	___flmul@grs,___flmul@grs+1
  6546  001F6A  6A1C               	clrf	___flmul@grs^0,c
  6547  001F6C  5013               	movf	___flmul@a^0,w,c
  6548  001F6E  020F               	mulwf	___flmul@b^0,c
  6549  001F70  CFF3 F026          	movff	prodl,___flmul@temp
  6550  001F74  CFF4 F027          	movff	prodh,___flmul@temp+1
  6551  001F78  5026               	movf	___flmul@temp^0,w,c
  6552  001F7A  261C               	addwf	___flmul@grs^0,f,c
  6553  001F7C  5027               	movf	(___flmul@temp+1)^0,w,c
  6554  001F7E  221D               	addwfc	(___flmul@grs+1)^0,f,c
  6555  001F80  0E00               	movlw	0
  6556  001F82  221E               	addwfc	(___flmul@grs+2)^0,f,c
  6557  001F84  0E00               	movlw	0
  6558  001F86  221F               	addwfc	(___flmul@grs+3)^0,f,c
  6559  001F88  5015               	movf	(___flmul@a+2)^0,w,c
  6560  001F8A  0210               	mulwf	(___flmul@b+1)^0,c
  6561  001F8C  CFF3 F026          	movff	prodl,___flmul@temp
  6562  001F90  CFF4 F027          	movff	prodh,___flmul@temp+1
  6563  001F94  5026               	movf	___flmul@temp^0,w,c
  6564  001F96  2622               	addwf	___flmul@prod^0,f,c
  6565  001F98  5027               	movf	(___flmul@temp+1)^0,w,c
  6566  001F9A  2223               	addwfc	(___flmul@prod+1)^0,f,c
  6567  001F9C  0E00               	movlw	0
  6568  001F9E  2224               	addwfc	(___flmul@prod+2)^0,f,c
  6569  001FA0  0E00               	movlw	0
  6570  001FA2  2225               	addwfc	(___flmul@prod+3)^0,f,c
  6571  001FA4  5014               	movf	(___flmul@a+1)^0,w,c
  6572  001FA6  0211               	mulwf	(___flmul@b+2)^0,c
  6573  001FA8  CFF3 F026          	movff	prodl,___flmul@temp
  6574  001FAC  CFF4 F027          	movff	prodh,___flmul@temp+1
  6575  001FB0  5026               	movf	___flmul@temp^0,w,c
  6576  001FB2  2622               	addwf	___flmul@prod^0,f,c
  6577  001FB4  5027               	movf	(___flmul@temp+1)^0,w,c
  6578  001FB6  2223               	addwfc	(___flmul@prod+1)^0,f,c
  6579  001FB8  0E00               	movlw	0
  6580  001FBA  2224               	addwfc	(___flmul@prod+2)^0,f,c
  6581  001FBC  0E00               	movlw	0
  6582  001FBE  2225               	addwfc	(___flmul@prod+3)^0,f,c
  6583  001FC0  5015               	movf	(___flmul@a+2)^0,w,c
  6584  001FC2  0211               	mulwf	(___flmul@b+2)^0,c
  6585  001FC4  CFF3 F026          	movff	prodl,___flmul@temp
  6586  001FC8  CFF4 F027          	movff	prodh,___flmul@temp+1
  6587  001FCC  5026               	movf	___flmul@temp^0,w,c
  6588  001FCE  6E17               	movwf	??___flmul^0,c
  6589  001FD0  5027               	movf	(___flmul@temp+1)^0,w,c
  6590  001FD2  6E18               	movwf	(??___flmul+1)^0,c
  6591  001FD4  6A19               	clrf	(??___flmul+2)^0,c
  6592  001FD6  6A1A               	clrf	(??___flmul+3)^0,c
  6593  001FD8  C019  F01A         	movff	??___flmul+2,??___flmul+3
  6594  001FDC  C018  F019         	movff	??___flmul+1,??___flmul+2
  6595  001FE0  C017  F018         	movff	??___flmul,??___flmul+1
  6596  001FE4  6A17               	clrf	??___flmul^0,c
  6597  001FE6  5017               	movf	??___flmul^0,w,c
  6598  001FE8  2622               	addwf	___flmul@prod^0,f,c
  6599  001FEA  5018               	movf	(??___flmul+1)^0,w,c
  6600  001FEC  2223               	addwfc	(___flmul@prod+1)^0,f,c
  6601  001FEE  5019               	movf	(??___flmul+2)^0,w,c
  6602  001FF0  2224               	addwfc	(___flmul@prod+2)^0,f,c
  6603  001FF2  501A               	movf	(??___flmul+3)^0,w,c
  6604  001FF4  2225               	addwfc	(___flmul@prod+3)^0,f,c
  6605  001FF6  C01C  F017         	movff	___flmul@grs,??___flmul
  6606  001FFA  C01D  F018         	movff	___flmul@grs+1,??___flmul+1
  6607  001FFE  C01E  F019         	movff	___flmul@grs+2,??___flmul+2
  6608  002002  C01F  F01A         	movff	___flmul@grs+3,??___flmul+3
  6609  002006  0E19               	movlw	25
  6610  002008  EF0B  F010         	goto	i2u323_40
  6611  00200C                     i2u323_45:
  6612  00200C  90D8               	bcf	status,0,c
  6613  00200E  321A               	rrcf	(??___flmul+3)^0,f,c
  6614  002010  3219               	rrcf	(??___flmul+2)^0,f,c
  6615  002012  3218               	rrcf	(??___flmul+1)^0,f,c
  6616  002014  3217               	rrcf	??___flmul^0,f,c
  6617  002016                     i2u323_40:
  6618  002016  2EE8               	decfsz	wreg,f,c
  6619  002018  EF06  F010         	goto	i2u323_45
  6620  00201C  5017               	movf	??___flmul^0,w,c
  6621  00201E  2622               	addwf	___flmul@prod^0,f,c
  6622  002020  5018               	movf	(??___flmul+1)^0,w,c
  6623  002022  2223               	addwfc	(___flmul@prod+1)^0,f,c
  6624  002024  5019               	movf	(??___flmul+2)^0,w,c
  6625  002026  2224               	addwfc	(___flmul@prod+2)^0,f,c
  6626  002028  501A               	movf	(??___flmul+3)^0,w,c
  6627  00202A  2225               	addwfc	(___flmul@prod+3)^0,f,c
  6628  00202C  C01E  F01F         	movff	___flmul@grs+2,___flmul@grs+3
  6629  002030  C01D  F01E         	movff	___flmul@grs+1,___flmul@grs+2
  6630  002034  C01C  F01D         	movff	___flmul@grs,___flmul@grs+1
  6631  002038  6A1C               	clrf	___flmul@grs^0,c
  6632  00203A  5020               	movf	___flmul@aexp^0,w,c
  6633  00203C  C021  F017         	movff	___flmul@bexp,??___flmul
  6634  002040  6A18               	clrf	(??___flmul+1)^0,c
  6635  002042  2617               	addwf	??___flmul^0,f,c
  6636  002044  0E00               	movlw	0
  6637  002046  2218               	addwfc	(??___flmul+1)^0,f,c
  6638  002048  0E82               	movlw	130
  6639  00204A  2417               	addwf	??___flmul^0,w,c
  6640  00204C  6E26               	movwf	___flmul@temp^0,c
  6641  00204E  0EFF               	movlw	255
  6642  002050  2018               	addwfc	(??___flmul+1)^0,w,c
  6643  002052  6E27               	movwf	(___flmul@temp+1)^0,c
  6644  002054  EF41  F010         	goto	i2l3142
  6645  002058                     i2l3136:
  6646  002058  90D8               	bcf	status,0,c
  6647  00205A  3622               	rlcf	___flmul@prod^0,f,c
  6648  00205C  3623               	rlcf	(___flmul@prod+1)^0,f,c
  6649  00205E  3624               	rlcf	(___flmul@prod+2)^0,f,c
  6650  002060  3625               	rlcf	(___flmul@prod+3)^0,f,c
  6651  002062  AE1F               	btfss	(___flmul@grs+3)^0,7,c
  6652  002064  EF36  F010         	goto	i2u324_41
  6653  002068  EF38  F010         	goto	i2u324_40
  6654  00206C                     i2u324_41:
  6655  00206C  EF39  F010         	goto	i2l751
  6656  002070                     i2u324_40:
  6657  002070  8022               	bsf	___flmul@prod^0,0,c
  6658  002072                     i2l751:
  6659  002072  90D8               	bcf	status,0,c
  6660  002074  361C               	rlcf	___flmul@grs^0,f,c
  6661  002076  361D               	rlcf	(___flmul@grs+1)^0,f,c
  6662  002078  361E               	rlcf	(___flmul@grs+2)^0,f,c
  6663  00207A  361F               	rlcf	(___flmul@grs+3)^0,f,c
  6664  00207C  0626               	decf	___flmul@temp^0,f,c
  6665  00207E  A0D8               	btfss	status,0,c
  6666  002080  0627               	decf	(___flmul@temp+1)^0,f,c
  6667  002082                     i2l3142:
  6668  002082  AE24               	btfss	(___flmul@prod+2)^0,7,c
  6669  002084  EF46  F010         	goto	i2u325_41
  6670  002088  EF48  F010         	goto	i2u325_40
  6671  00208C                     i2u325_41:
  6672  00208C  EF2C  F010         	goto	i2l3136
  6673  002090                     i2u325_40:
  6674  002090  0E00               	movlw	0
  6675  002092  6E20               	movwf	___flmul@aexp^0,c
  6676  002094  AE1F               	btfss	(___flmul@grs+3)^0,7,c
  6677  002096  EF4F  F010         	goto	i2u326_41
  6678  00209A  EF51  F010         	goto	i2u326_40
  6679  00209E                     i2u326_41:
  6680  00209E  EF75  F010         	goto	i2l753
  6681  0020A2                     i2u326_40:
  6682  0020A2  0EFF               	movlw	255
  6683  0020A4  141C               	andwf	___flmul@grs^0,w,c
  6684  0020A6  6E17               	movwf	??___flmul^0,c
  6685  0020A8  0EFF               	movlw	255
  6686  0020AA  141D               	andwf	(___flmul@grs+1)^0,w,c
  6687  0020AC  6E18               	movwf	(??___flmul+1)^0,c
  6688  0020AE  0EFF               	movlw	255
  6689  0020B0  141E               	andwf	(___flmul@grs+2)^0,w,c
  6690  0020B2  6E19               	movwf	(??___flmul+2)^0,c
  6691  0020B4  0E7F               	movlw	127
  6692  0020B6  141F               	andwf	(___flmul@grs+3)^0,w,c
  6693  0020B8  6E1A               	movwf	(??___flmul+3)^0,c
  6694  0020BA  5017               	movf	??___flmul^0,w,c
  6695  0020BC  1018               	iorwf	(??___flmul+1)^0,w,c
  6696  0020BE  1019               	iorwf	(??___flmul+2)^0,w,c
  6697  0020C0  101A               	iorwf	(??___flmul+3)^0,w,c
  6698  0020C2  B4D8               	btfsc	status,2,c
  6699  0020C4  EF66  F010         	goto	i2u327_41
  6700  0020C8  EF68  F010         	goto	i2u327_40
  6701  0020CC                     i2u327_41:
  6702  0020CC  EF6C  F010         	goto	i2l754
  6703  0020D0                     i2u327_40:
  6704  0020D0                     i2l3150:
  6705  0020D0  0E01               	movlw	1
  6706  0020D2  6E20               	movwf	___flmul@aexp^0,c
  6707  0020D4  EF75  F010         	goto	i2l753
  6708  0020D8                     i2l754:
  6709  0020D8  A022               	btfss	___flmul@prod^0,0,c
  6710  0020DA  EF71  F010         	goto	i2u328_41
  6711  0020DE  EF73  F010         	goto	i2u328_40
  6712  0020E2                     i2u328_41:
  6713  0020E2  EF75  F010         	goto	i2l753
  6714  0020E6                     i2u328_40:
  6715  0020E6  EF68  F010         	goto	i2l3150
  6716  0020EA                     i2l753:
  6717  0020EA  5020               	movf	___flmul@aexp^0,w,c
  6718  0020EC  B4D8               	btfsc	status,2,c
  6719  0020EE  EF7B  F010         	goto	i2u329_41
  6720  0020F2  EF7D  F010         	goto	i2u329_40
  6721  0020F6                     i2u329_41:
  6722  0020F6  EFA1  F010         	goto	i2l3162
  6723  0020FA                     i2u329_40:
  6724  0020FA  0E01               	movlw	1
  6725  0020FC  2622               	addwf	___flmul@prod^0,f,c
  6726  0020FE  0E00               	movlw	0
  6727  002100  2223               	addwfc	(___flmul@prod+1)^0,f,c
  6728  002102  2224               	addwfc	(___flmul@prod+2)^0,f,c
  6729  002104  2225               	addwfc	(___flmul@prod+3)^0,f,c
  6730  002106  A025               	btfss	(___flmul@prod+3)^0,0,c
  6731  002108  EF88  F010         	goto	i2u330_41
  6732  00210C  EF8A  F010         	goto	i2u330_40
  6733  002110                     i2u330_41:
  6734  002110  EFA1  F010         	goto	i2l3162
  6735  002114                     i2u330_40:
  6736  002114  C022  F017         	movff	___flmul@prod,??___flmul
  6737  002118  C023  F018         	movff	___flmul@prod+1,??___flmul+1
  6738  00211C  C024  F019         	movff	___flmul@prod+2,??___flmul+2
  6739  002120  C025  F01A         	movff	___flmul@prod+3,??___flmul+3
  6740  002124  341A               	rlcf	(??___flmul+3)^0,w,c
  6741  002126  321A               	rrcf	(??___flmul+3)^0,f,c
  6742  002128  3219               	rrcf	(??___flmul+2)^0,f,c
  6743  00212A  3218               	rrcf	(??___flmul+1)^0,f,c
  6744  00212C  3217               	rrcf	??___flmul^0,f,c
  6745  00212E  C017  F022         	movff	??___flmul,___flmul@prod
  6746  002132  C018  F023         	movff	??___flmul+1,___flmul@prod+1
  6747  002136  C019  F024         	movff	??___flmul+2,___flmul@prod+2
  6748  00213A  C01A  F025         	movff	??___flmul+3,___flmul@prod+3
  6749  00213E  4A26               	infsnz	___flmul@temp^0,f,c
  6750  002140  2A27               	incf	(___flmul@temp+1)^0,f,c
  6751  002142                     i2l3162:
  6752  002142  BE27               	btfsc	(___flmul@temp+1)^0,7,c
  6753  002144  EFAC  F010         	goto	i2u331_41
  6754  002148  5027               	movf	(___flmul@temp+1)^0,w,c
  6755  00214A  E108               	bnz	i2u331_40
  6756  00214C  2826               	incf	___flmul@temp^0,w,c
  6757  00214E  A0D8               	btfss	status,0,c
  6758  002150  EFAC  F010         	goto	i2u331_41
  6759  002154  EFAE  F010         	goto	i2u331_40
  6760  002158                     i2u331_41:
  6761  002158  EFB8  F010         	goto	i2l3166
  6762  00215C                     i2u331_40:
  6763  00215C  0E00               	movlw	0
  6764  00215E  6E22               	movwf	___flmul@prod^0,c
  6765  002160  0E00               	movlw	0
  6766  002162  6E23               	movwf	(___flmul@prod+1)^0,c
  6767  002164  0E80               	movlw	128
  6768  002166  6E24               	movwf	(___flmul@prod+2)^0,c
  6769  002168  0E7F               	movlw	127
  6770  00216A  6E25               	movwf	(___flmul@prod+3)^0,c
  6771  00216C  EFE6  F010         	goto	i2l3178
  6772  002170                     i2l3166:
  6773  002170  BE27               	btfsc	(___flmul@temp+1)^0,7,c
  6774  002172  EFC5  F010         	goto	i2u332_40
  6775  002176  5027               	movf	(___flmul@temp+1)^0,w,c
  6776  002178  E106               	bnz	i2u332_41
  6777  00217A  0426               	decf	___flmul@temp^0,w,c
  6778  00217C  B0D8               	btfsc	status,0,c
  6779  00217E  EFC3  F010         	goto	i2u332_41
  6780  002182  EFC5  F010         	goto	i2u332_40
  6781  002186                     i2u332_41:
  6782  002186  EFD1  F010         	goto	i2l761
  6783  00218A                     i2u332_40:
  6784  00218A  0E00               	movlw	0
  6785  00218C  6E22               	movwf	___flmul@prod^0,c
  6786  00218E  0E00               	movlw	0
  6787  002190  6E23               	movwf	(___flmul@prod+1)^0,c
  6788  002192  0E00               	movlw	0
  6789  002194  6E24               	movwf	(___flmul@prod+2)^0,c
  6790  002196  0E00               	movlw	0
  6791  002198  6E25               	movwf	(___flmul@prod+3)^0,c
  6792  00219A  0E00               	movlw	0
  6793  00219C  6E1B               	movwf	___flmul@sign^0,c
  6794  00219E  EFE6  F010         	goto	i2l3178
  6795  0021A2                     i2l761:
  6796  0021A2  C026  F021         	movff	___flmul@temp,___flmul@bexp
  6797  0021A6  0EFF               	movlw	255
  6798  0021A8  1622               	andwf	___flmul@prod^0,f,c
  6799  0021AA  0EFF               	movlw	255
  6800  0021AC  1623               	andwf	(___flmul@prod+1)^0,f,c
  6801  0021AE  0E7F               	movlw	127
  6802  0021B0  1624               	andwf	(___flmul@prod+2)^0,f,c
  6803  0021B2  0E00               	movlw	0
  6804  0021B4  1625               	andwf	(___flmul@prod+3)^0,f,c
  6805  0021B6  A021               	btfss	___flmul@bexp^0,0,c
  6806  0021B8  EFE0  F010         	goto	i2u333_41
  6807  0021BC  EFE2  F010         	goto	i2u333_40
  6808  0021C0                     i2u333_41:
  6809  0021C0  EFE3  F010         	goto	i2l3176
  6810  0021C4                     i2u333_40:
  6811  0021C4  8E24               	bsf	(___flmul@prod+2)^0,7,c
  6812  0021C6                     i2l3176:
  6813  0021C6  90D8               	bcf	status,0,c
  6814  0021C8  3021               	rrcf	___flmul@bexp^0,w,c
  6815  0021CA  6E25               	movwf	(___flmul@prod+3)^0,c
  6816  0021CC                     i2l3178:
  6817  0021CC  501B               	movf	___flmul@sign^0,w,c
  6818  0021CE  1225               	iorwf	(___flmul@prod+3)^0,f,c
  6819  0021D0  C022  F00F         	movff	___flmul@prod,?___flmul
  6820  0021D4  C023  F010         	movff	___flmul@prod+1,?___flmul+1
  6821  0021D8  C024  F011         	movff	___flmul@prod+2,?___flmul+2
  6822  0021DC  C025  F012         	movff	___flmul@prod+3,?___flmul+3
  6823  0021E0                     i2l748:
  6824  0021E0  0012               	return		;funcret
  6825  0021E2                     __end_of___flmul:
  6826                           	callstack 0
  6827                           
  6828 ;; *************** function ___flge *****************
  6829 ;; Defined at:
  6830 ;;		line 4 in file "C:\Program Files\Microchip\xc8\v2.20\pic\sources\c99\common\flge.c"
  6831 ;; Parameters:    Size  Location     Type
  6832 ;;  ff1             4   39[COMRAM] unsigned char 
  6833 ;;  ff2             4   43[COMRAM] unsigned char 
  6834 ;; Auto vars:     Size  Location     Type
  6835 ;;		None
  6836 ;; Return value:  Size  Location     Type
  6837 ;;		None               void
  6838 ;; Registers used:
  6839 ;;		wreg, status,2, status,0
  6840 ;; Tracked objects:
  6841 ;;		On entry : 0/0
  6842 ;;		On exit  : 0/0
  6843 ;;		Unchanged: 0/0
  6844 ;; Data sizes:     COMRAM   BANK0   BANK1   BANK2   BANK3   BANK4   BANK5   BANK6   BANK7
  6845 ;;      Params:         8       0       0       0       0       0       0       0       0
  6846 ;;      Locals:         0       0       0       0       0       0       0       0       0
  6847 ;;      Temps:          4       0       0       0       0       0       0       0       0
  6848 ;;      Totals:        12       0       0       0       0       0       0       0       0
  6849 ;;Total ram usage:       12 bytes
  6850 ;; Hardware stack levels used:    1
  6851 ;; This function calls:
  6852 ;;		Nothing
  6853 ;; This function is called by:
  6854 ;;		_efgtoa
  6855 ;; This function uses a non-reentrant model
  6856 ;;
  6857                           
  6858                           	psect	text28
  6859  002CE0                     __ptext28:
  6860                           	callstack 0
  6861  002CE0                     ___flge:
  6862                           	callstack 22
  6863  002CE0  0E00               	movlw	0
  6864  002CE2  1428               	andwf	___flge@ff1^0,w,c
  6865  002CE4  6E30               	movwf	??___flge^0,c
  6866  002CE6  0E00               	movlw	0
  6867  002CE8  1429               	andwf	(___flge@ff1+1)^0,w,c
  6868  002CEA  6E31               	movwf	(??___flge+1)^0,c
  6869  002CEC  0E80               	movlw	128
  6870  002CEE  142A               	andwf	(___flge@ff1+2)^0,w,c
  6871  002CF0  6E32               	movwf	(??___flge+2)^0,c
  6872  002CF2  0E7F               	movlw	127
  6873  002CF4  142B               	andwf	(___flge@ff1+3)^0,w,c
  6874  002CF6  6E33               	movwf	(??___flge+3)^0,c
  6875  002CF8  5030               	movf	??___flge^0,w,c
  6876  002CFA  1031               	iorwf	(??___flge+1)^0,w,c
  6877  002CFC  1032               	iorwf	(??___flge+2)^0,w,c
  6878  002CFE  1033               	iorwf	(??___flge+3)^0,w,c
  6879  002D00  A4D8               	btfss	status,2,c
  6880  002D02  EF85  F016         	goto	i2u349_41
  6881  002D06  EF87  F016         	goto	i2u349_40
  6882  002D0A                     i2u349_41:
  6883  002D0A  EF8F  F016         	goto	i2l3290
  6884  002D0E                     i2u349_40:
  6885  002D0E  0E00               	movlw	0
  6886  002D10  6E28               	movwf	___flge@ff1^0,c
  6887  002D12  0E00               	movlw	0
  6888  002D14  6E29               	movwf	(___flge@ff1+1)^0,c
  6889  002D16  0E00               	movlw	0
  6890  002D18  6E2A               	movwf	(___flge@ff1+2)^0,c
  6891  002D1A  0E00               	movlw	0
  6892  002D1C  6E2B               	movwf	(___flge@ff1+3)^0,c
  6893  002D1E                     i2l3290:
  6894  002D1E  0E00               	movlw	0
  6895  002D20  142C               	andwf	___flge@ff2^0,w,c
  6896  002D22  6E30               	movwf	??___flge^0,c
  6897  002D24  0E00               	movlw	0
  6898  002D26  142D               	andwf	(___flge@ff2+1)^0,w,c
  6899  002D28  6E31               	movwf	(??___flge+1)^0,c
  6900  002D2A  0E80               	movlw	128
  6901  002D2C  142E               	andwf	(___flge@ff2+2)^0,w,c
  6902  002D2E  6E32               	movwf	(??___flge+2)^0,c
  6903  002D30  0E7F               	movlw	127
  6904  002D32  142F               	andwf	(___flge@ff2+3)^0,w,c
  6905  002D34  6E33               	movwf	(??___flge+3)^0,c
  6906  002D36  5030               	movf	??___flge^0,w,c
  6907  002D38  1031               	iorwf	(??___flge+1)^0,w,c
  6908  002D3A  1032               	iorwf	(??___flge+2)^0,w,c
  6909  002D3C  1033               	iorwf	(??___flge+3)^0,w,c
  6910  002D3E  A4D8               	btfss	status,2,c
  6911  002D40  EFA4  F016         	goto	i2u350_41
  6912  002D44  EFA6  F016         	goto	i2u350_40
  6913  002D48                     i2u350_41:
  6914  002D48  EFAE  F016         	goto	i2l3294
  6915  002D4C                     i2u350_40:
  6916  002D4C  0E00               	movlw	0
  6917  002D4E  6E2C               	movwf	___flge@ff2^0,c
  6918  002D50  0E00               	movlw	0
  6919  002D52  6E2D               	movwf	(___flge@ff2+1)^0,c
  6920  002D54  0E00               	movlw	0
  6921  002D56  6E2E               	movwf	(___flge@ff2+2)^0,c
  6922  002D58  0E00               	movlw	0
  6923  002D5A  6E2F               	movwf	(___flge@ff2+3)^0,c
  6924  002D5C                     i2l3294:
  6925  002D5C  AE2B               	btfss	(___flge@ff1+3)^0,7,c
  6926  002D5E  EFB3  F016         	goto	i2u351_41
  6927  002D62  EFB5  F016         	goto	i2u351_40
  6928  002D66                     i2u351_41:
  6929  002D66  EFBE  F016         	goto	i2l3298
  6930  002D6A                     i2u351_40:
  6931  002D6A  6C28               	negf	___flge@ff1^0,c
  6932  002D6C  1E29               	comf	(___flge@ff1+1)^0,f,c
  6933  002D6E  B0D8               	btfsc	status,0,c
  6934  002D70  2A29               	incf	(___flge@ff1+1)^0,f,c
  6935  002D72  1E2A               	comf	(___flge@ff1+2)^0,f,c
  6936  002D74  B0D8               	btfsc	status,0,c
  6937  002D76  2A2A               	incf	(___flge@ff1+2)^0,f,c
  6938  002D78  0E80               	movlw	128
  6939  002D7A  562B               	subfwb	(___flge@ff1+3)^0,f,c
  6940  002D7C                     i2l3298:
  6941  002D7C  AE2F               	btfss	(___flge@ff2+3)^0,7,c
  6942  002D7E  EFC3  F016         	goto	i2u352_41
  6943  002D82  EFC5  F016         	goto	i2u352_40
  6944  002D86                     i2u352_41:
  6945  002D86  EFCE  F016         	goto	i2l395
  6946  002D8A                     i2u352_40:
  6947  002D8A  6C2C               	negf	___flge@ff2^0,c
  6948  002D8C  1E2D               	comf	(___flge@ff2+1)^0,f,c
  6949  002D8E  B0D8               	btfsc	status,0,c
  6950  002D90  2A2D               	incf	(___flge@ff2+1)^0,f,c
  6951  002D92  1E2E               	comf	(___flge@ff2+2)^0,f,c
  6952  002D94  B0D8               	btfsc	status,0,c
  6953  002D96  2A2E               	incf	(___flge@ff2+2)^0,f,c
  6954  002D98  0E80               	movlw	128
  6955  002D9A  562F               	subfwb	(___flge@ff2+3)^0,f,c
  6956  002D9C                     i2l395:
  6957  002D9C  0E00               	movlw	0
  6958  002D9E  1A28               	xorwf	___flge@ff1^0,f,c
  6959  002DA0  0E00               	movlw	0
  6960  002DA2  1A29               	xorwf	(___flge@ff1+1)^0,f,c
  6961  002DA4  0E00               	movlw	0
  6962  002DA6  1A2A               	xorwf	(___flge@ff1+2)^0,f,c
  6963  002DA8  0E80               	movlw	128
  6964  002DAA  1A2B               	xorwf	(___flge@ff1+3)^0,f,c
  6965  002DAC  0E00               	movlw	0
  6966  002DAE  1A2C               	xorwf	___flge@ff2^0,f,c
  6967  002DB0  0E00               	movlw	0
  6968  002DB2  1A2D               	xorwf	(___flge@ff2+1)^0,f,c
  6969  002DB4  0E00               	movlw	0
  6970  002DB6  1A2E               	xorwf	(___flge@ff2+2)^0,f,c
  6971  002DB8  0E80               	movlw	128
  6972  002DBA  1A2F               	xorwf	(___flge@ff2+3)^0,f,c
  6973  002DBC  502C               	movf	___flge@ff2^0,w,c
  6974  002DBE  5C28               	subwf	___flge@ff1^0,w,c
  6975  002DC0  502D               	movf	(___flge@ff2+1)^0,w,c
  6976  002DC2  5829               	subwfb	(___flge@ff1+1)^0,w,c
  6977  002DC4  502E               	movf	(___flge@ff2+2)^0,w,c
  6978  002DC6  582A               	subwfb	(___flge@ff1+2)^0,w,c
  6979  002DC8  502F               	movf	(___flge@ff2+3)^0,w,c
  6980  002DCA  582B               	subwfb	(___flge@ff1+3)^0,w,c
  6981  002DCC  B0D8               	btfsc	status,0,c
  6982  002DCE  EFEB  F016         	goto	i2u353_41
  6983  002DD2  EFED  F016         	goto	i2u353_40
  6984  002DD6                     i2u353_41:
  6985  002DD6  EFF0  F016         	goto	i2l3304
  6986  002DDA                     i2u353_40:
  6987  002DDA  90D8               	bcf	status,0,c
  6988  002DDC  EFF1  F016         	goto	i2l400
  6989  002DE0                     i2l3304:
  6990  002DE0  80D8               	bsf	status,0,c
  6991  002DE2                     i2l400:
  6992  002DE2  0012               	return		;funcret
  6993  002DE4                     __end_of___flge:
  6994                           	callstack 0
  6995                           
  6996 ;; *************** function ___fleq *****************
  6997 ;; Defined at:
  6998 ;;		line 4 in file "C:\Program Files\Microchip\xc8\v2.20\pic\sources\c99\common\fleq.c"
  6999 ;; Parameters:    Size  Location     Type
  7000 ;;  ff1             4    0[COMRAM] unsigned char 
  7001 ;;  ff2             4    4[COMRAM] unsigned char 
  7002 ;; Auto vars:     Size  Location     Type
  7003 ;;		None
  7004 ;; Return value:  Size  Location     Type
  7005 ;;		None               void
  7006 ;; Registers used:
  7007 ;;		wreg, status,2, status,0
  7008 ;; Tracked objects:
  7009 ;;		On entry : 0/0
  7010 ;;		On exit  : 0/0
  7011 ;;		Unchanged: 0/0
  7012 ;; Data sizes:     COMRAM   BANK0   BANK1   BANK2   BANK3   BANK4   BANK5   BANK6   BANK7
  7013 ;;      Params:         8       0       0       0       0       0       0       0       0
  7014 ;;      Locals:         0       0       0       0       0       0       0       0       0
  7015 ;;      Temps:          4       0       0       0       0       0       0       0       0
  7016 ;;      Totals:        12       0       0       0       0       0       0       0       0
  7017 ;;Total ram usage:       12 bytes
  7018 ;; Hardware stack levels used:    1
  7019 ;; This function calls:
  7020 ;;		Nothing
  7021 ;; This function is called by:
  7022 ;;		_efgtoa
  7023 ;; This function uses a non-reentrant model
  7024 ;;
  7025                           
  7026                           	psect	text29
  7027  0032BC                     __ptext29:
  7028                           	callstack 0
  7029  0032BC                     ___fleq:
  7030                           	callstack 22
  7031  0032BC  0E00               	movlw	0
  7032  0032BE  1401               	andwf	___fleq@ff1^0,w,c
  7033  0032C0  6E09               	movwf	??___fleq^0,c
  7034  0032C2  0E00               	movlw	0
  7035  0032C4  1402               	andwf	(___fleq@ff1+1)^0,w,c
  7036  0032C6  6E0A               	movwf	(??___fleq+1)^0,c
  7037  0032C8  0E80               	movlw	128
  7038  0032CA  1403               	andwf	(___fleq@ff1+2)^0,w,c
  7039  0032CC  6E0B               	movwf	(??___fleq+2)^0,c
  7040  0032CE  0E7F               	movlw	127
  7041  0032D0  1404               	andwf	(___fleq@ff1+3)^0,w,c
  7042  0032D2  6E0C               	movwf	(??___fleq+3)^0,c
  7043  0032D4  5009               	movf	??___fleq^0,w,c
  7044  0032D6  100A               	iorwf	(??___fleq+1)^0,w,c
  7045  0032D8  100B               	iorwf	(??___fleq+2)^0,w,c
  7046  0032DA  100C               	iorwf	(??___fleq+3)^0,w,c
  7047  0032DC  A4D8               	btfss	status,2,c
  7048  0032DE  EF73  F019         	goto	i2u346_41
  7049  0032E2  EF75  F019         	goto	i2u346_40
  7050  0032E6                     i2u346_41:
  7051  0032E6  EF7D  F019         	goto	i2l3274
  7052  0032EA                     i2u346_40:
  7053  0032EA  0E00               	movlw	0
  7054  0032EC  6E01               	movwf	___fleq@ff1^0,c
  7055  0032EE  0E00               	movlw	0
  7056  0032F0  6E02               	movwf	(___fleq@ff1+1)^0,c
  7057  0032F2  0E00               	movlw	0
  7058  0032F4  6E03               	movwf	(___fleq@ff1+2)^0,c
  7059  0032F6  0E00               	movlw	0
  7060  0032F8  6E04               	movwf	(___fleq@ff1+3)^0,c
  7061  0032FA                     i2l3274:
  7062  0032FA  0E00               	movlw	0
  7063  0032FC  1405               	andwf	___fleq@ff2^0,w,c
  7064  0032FE  6E09               	movwf	??___fleq^0,c
  7065  003300  0E00               	movlw	0
  7066  003302  1406               	andwf	(___fleq@ff2+1)^0,w,c
  7067  003304  6E0A               	movwf	(??___fleq+1)^0,c
  7068  003306  0E80               	movlw	128
  7069  003308  1407               	andwf	(___fleq@ff2+2)^0,w,c
  7070  00330A  6E0B               	movwf	(??___fleq+2)^0,c
  7071  00330C  0E7F               	movlw	127
  7072  00330E  1408               	andwf	(___fleq@ff2+3)^0,w,c
  7073  003310  6E0C               	movwf	(??___fleq+3)^0,c
  7074  003312  5009               	movf	??___fleq^0,w,c
  7075  003314  100A               	iorwf	(??___fleq+1)^0,w,c
  7076  003316  100B               	iorwf	(??___fleq+2)^0,w,c
  7077  003318  100C               	iorwf	(??___fleq+3)^0,w,c
  7078  00331A  A4D8               	btfss	status,2,c
  7079  00331C  EF92  F019         	goto	i2u347_41
  7080  003320  EF94  F019         	goto	i2u347_40
  7081  003324                     i2u347_41:
  7082  003324  EF9C  F019         	goto	i2l3278
  7083  003328                     i2u347_40:
  7084  003328  0E00               	movlw	0
  7085  00332A  6E05               	movwf	___fleq@ff2^0,c
  7086  00332C  0E00               	movlw	0
  7087  00332E  6E06               	movwf	(___fleq@ff2+1)^0,c
  7088  003330  0E00               	movlw	0
  7089  003332  6E07               	movwf	(___fleq@ff2+2)^0,c
  7090  003334  0E00               	movlw	0
  7091  003336  6E08               	movwf	(___fleq@ff2+3)^0,c
  7092  003338                     i2l3278:
  7093  003338  5005               	movf	___fleq@ff2^0,w,c
  7094  00333A  1801               	xorwf	___fleq@ff1^0,w,c
  7095  00333C  E10F               	bnz	i2u348_40
  7096  00333E  5006               	movf	(___fleq@ff2+1)^0,w,c
  7097  003340  1802               	xorwf	(___fleq@ff1+1)^0,w,c
  7098  003342  E10C               	bnz	i2u348_40
  7099  003344  5007               	movf	(___fleq@ff2+2)^0,w,c
  7100  003346  1803               	xorwf	(___fleq@ff1+2)^0,w,c
  7101  003348  E109               	bnz	i2u348_40
  7102  00334A  5008               	movf	(___fleq@ff2+3)^0,w,c
  7103  00334C  1804               	xorwf	(___fleq@ff1+3)^0,w,c
  7104  00334E  B4D8               	btfsc	status,2,c
  7105  003350  EFAC  F019         	goto	i2u348_41
  7106  003354  EFAE  F019         	goto	i2u348_40
  7107  003358                     i2u348_41:
  7108  003358  EFB1  F019         	goto	i2l3282
  7109  00335C                     i2u348_40:
  7110  00335C  90D8               	bcf	status,0,c
  7111  00335E  EFB2  F019         	goto	i2l389
  7112  003362                     i2l3282:
  7113  003362  80D8               	bsf	status,0,c
  7114  003364                     i2l389:
  7115  003364  0012               	return		;funcret
  7116  003366                     __end_of___fleq:
  7117                           	callstack 0
  7118                           
  7119 ;; *************** function ___fldiv *****************
  7120 ;; Defined at:
  7121 ;;		line 11 in file "C:\Program Files\Microchip\xc8\v2.20\pic\sources\c99\common\sprcdiv.c"
  7122 ;; Parameters:    Size  Location     Type
  7123 ;;  b               4    0[COMRAM] unsigned char 
  7124 ;;  a               4    4[COMRAM] unsigned char 
  7125 ;; Auto vars:     Size  Location     Type
  7126 ;;  grs             4   19[COMRAM] unsigned long 
  7127 ;;  rem             4   12[COMRAM] unsigned long 
  7128 ;;  new_exp         2   17[COMRAM] short 
  7129 ;;  aexp            1   24[COMRAM] unsigned char 
  7130 ;;  bexp            1   23[COMRAM] unsigned char 
  7131 ;;  sign            1   16[COMRAM] unsigned char 
  7132 ;; Return value:  Size  Location     Type
  7133 ;;                  4    0[COMRAM] unsigned char 
  7134 ;; Registers used:
  7135 ;;		wreg, status,2, status,0
  7136 ;; Tracked objects:
  7137 ;;		On entry : 0/0
  7138 ;;		On exit  : 0/0
  7139 ;;		Unchanged: 0/0
  7140 ;; Data sizes:     COMRAM   BANK0   BANK1   BANK2   BANK3   BANK4   BANK5   BANK6   BANK7
  7141 ;;      Params:         8       0       0       0       0       0       0       0       0
  7142 ;;      Locals:        13       0       0       0       0       0       0       0       0
  7143 ;;      Temps:          4       0       0       0       0       0       0       0       0
  7144 ;;      Totals:        25       0       0       0       0       0       0       0       0
  7145 ;;Total ram usage:       25 bytes
  7146 ;; Hardware stack levels used:    1
  7147 ;; This function calls:
  7148 ;;		Nothing
  7149 ;; This function is called by:
  7150 ;;		_efgtoa
  7151 ;; This function uses a non-reentrant model
  7152 ;;
  7153                           
  7154                           	psect	text30
  7155  0021E2                     __ptext30:
  7156                           	callstack 0
  7157  0021E2                     ___fldiv:
  7158                           	callstack 22
  7159  0021E2  5004               	movf	(___fldiv@b+3)^0,w,c
  7160  0021E4  0B80               	andlw	128
  7161  0021E6  6E11               	movwf	___fldiv@sign^0,c
  7162  0021E8  5004               	movf	(___fldiv@b+3)^0,w,c
  7163  0021EA  2404               	addwf	(___fldiv@b+3)^0,w,c
  7164  0021EC  6E18               	movwf	___fldiv@bexp^0,c
  7165  0021EE  AE03               	btfss	(___fldiv@b+2)^0,7,c
  7166  0021F0  EFFC  F010         	goto	i2u292_41
  7167  0021F4  EFFE  F010         	goto	i2u292_40
  7168  0021F8                     i2u292_41:
  7169  0021F8  EFFF  F010         	goto	i2l2922
  7170  0021FC                     i2u292_40:
  7171  0021FC  8018               	bsf	___fldiv@bexp^0,0,c
  7172  0021FE                     i2l2922:
  7173  0021FE  5018               	movf	___fldiv@bexp^0,w,c
  7174  002200  B4D8               	btfsc	status,2,c
  7175  002202  EF05  F011         	goto	i2u293_41
  7176  002206  EF07  F011         	goto	i2u293_40
  7177  00220A                     i2u293_41:
  7178  00220A  EF1C  F011         	goto	i2l2932
  7179  00220E                     i2u293_40:
  7180  00220E  2818               	incf	___fldiv@bexp^0,w,c
  7181  002210  A4D8               	btfss	status,2,c
  7182  002212  EF0D  F011         	goto	i2u294_41
  7183  002216  EF0F  F011         	goto	i2u294_40
  7184  00221A                     i2u294_41:
  7185  00221A  EF17  F011         	goto	i2l2928
  7186  00221E                     i2u294_40:
  7187  00221E  0E00               	movlw	0
  7188  002220  6E01               	movwf	___fldiv@b^0,c
  7189  002222  0E00               	movlw	0
  7190  002224  6E02               	movwf	(___fldiv@b+1)^0,c
  7191  002226  0E00               	movlw	0
  7192  002228  6E03               	movwf	(___fldiv@b+2)^0,c
  7193  00222A  0E00               	movlw	0
  7194  00222C  6E04               	movwf	(___fldiv@b+3)^0,c
  7195  00222E                     i2l2928:
  7196  00222E  8E03               	bsf	(___fldiv@b+2)^0,7,c
  7197  002230  0E00               	movlw	0
  7198  002232  6E04               	movwf	(___fldiv@b+3)^0,c
  7199  002234  EF24  F011         	goto	i2l2934
  7200  002238                     i2l2932:
  7201  002238  0E00               	movlw	0
  7202  00223A  6E01               	movwf	___fldiv@b^0,c
  7203  00223C  0E00               	movlw	0
  7204  00223E  6E02               	movwf	(___fldiv@b+1)^0,c
  7205  002240  0E00               	movlw	0
  7206  002242  6E03               	movwf	(___fldiv@b+2)^0,c
  7207  002244  0E00               	movlw	0
  7208  002246  6E04               	movwf	(___fldiv@b+3)^0,c
  7209  002248                     i2l2934:
  7210  002248  5008               	movf	(___fldiv@a+3)^0,w,c
  7211  00224A  0B80               	andlw	128
  7212  00224C  1A11               	xorwf	___fldiv@sign^0,f,c
  7213  00224E  5008               	movf	(___fldiv@a+3)^0,w,c
  7214  002250  2408               	addwf	(___fldiv@a+3)^0,w,c
  7215  002252  6E19               	movwf	___fldiv@aexp^0,c
  7216  002254  AE07               	btfss	(___fldiv@a+2)^0,7,c
  7217  002256  EF2F  F011         	goto	i2u295_41
  7218  00225A  EF31  F011         	goto	i2u295_40
  7219  00225E                     i2u295_41:
  7220  00225E  EF32  F011         	goto	i2l2942
  7221  002262                     i2u295_40:
  7222  002262  8019               	bsf	___fldiv@aexp^0,0,c
  7223  002264                     i2l2942:
  7224  002264  5019               	movf	___fldiv@aexp^0,w,c
  7225  002266  B4D8               	btfsc	status,2,c
  7226  002268  EF38  F011         	goto	i2u296_41
  7227  00226C  EF3A  F011         	goto	i2u296_40
  7228  002270                     i2u296_41:
  7229  002270  EF4F  F011         	goto	i2l2952
  7230  002274                     i2u296_40:
  7231  002274  2819               	incf	___fldiv@aexp^0,w,c
  7232  002276  A4D8               	btfss	status,2,c
  7233  002278  EF40  F011         	goto	i2u297_41
  7234  00227C  EF42  F011         	goto	i2u297_40
  7235  002280                     i2u297_41:
  7236  002280  EF4A  F011         	goto	i2l2948
  7237  002284                     i2u297_40:
  7238  002284  0E00               	movlw	0
  7239  002286  6E05               	movwf	___fldiv@a^0,c
  7240  002288  0E00               	movlw	0
  7241  00228A  6E06               	movwf	(___fldiv@a+1)^0,c
  7242  00228C  0E00               	movlw	0
  7243  00228E  6E07               	movwf	(___fldiv@a+2)^0,c
  7244  002290  0E00               	movlw	0
  7245  002292  6E08               	movwf	(___fldiv@a+3)^0,c
  7246  002294                     i2l2948:
  7247  002294  8E07               	bsf	(___fldiv@a+2)^0,7,c
  7248  002296  0E00               	movlw	0
  7249  002298  6E08               	movwf	(___fldiv@a+3)^0,c
  7250  00229A  EF57  F011         	goto	i2l2954
  7251  00229E                     i2l2952:
  7252  00229E  0E00               	movlw	0
  7253  0022A0  6E05               	movwf	___fldiv@a^0,c
  7254  0022A2  0E00               	movlw	0
  7255  0022A4  6E06               	movwf	(___fldiv@a+1)^0,c
  7256  0022A6  0E00               	movlw	0
  7257  0022A8  6E07               	movwf	(___fldiv@a+2)^0,c
  7258  0022AA  0E00               	movlw	0
  7259  0022AC  6E08               	movwf	(___fldiv@a+3)^0,c
  7260  0022AE                     i2l2954:
  7261  0022AE  5005               	movf	___fldiv@a^0,w,c
  7262  0022B0  1006               	iorwf	(___fldiv@a+1)^0,w,c
  7263  0022B2  1007               	iorwf	(___fldiv@a+2)^0,w,c
  7264  0022B4  1008               	iorwf	(___fldiv@a+3)^0,w,c
  7265  0022B6  A4D8               	btfss	status,2,c
  7266  0022B8  EF60  F011         	goto	i2u298_41
  7267  0022BC  EF62  F011         	goto	i2u298_40
  7268  0022C0                     i2u298_41:
  7269  0022C0  EF7A  F011         	goto	i2l2966
  7270  0022C4                     i2u298_40:
  7271  0022C4  0E00               	movlw	0
  7272  0022C6  6E01               	movwf	___fldiv@b^0,c
  7273  0022C8  0E00               	movlw	0
  7274  0022CA  6E02               	movwf	(___fldiv@b+1)^0,c
  7275  0022CC  0E00               	movlw	0
  7276  0022CE  6E03               	movwf	(___fldiv@b+2)^0,c
  7277  0022D0  0E00               	movlw	0
  7278  0022D2  6E04               	movwf	(___fldiv@b+3)^0,c
  7279  0022D4  0E80               	movlw	128
  7280  0022D6  1203               	iorwf	(___fldiv@b+2)^0,f,c
  7281  0022D8  0E7F               	movlw	127
  7282  0022DA  1204               	iorwf	(___fldiv@b+3)^0,f,c
  7283  0022DC                     i2l2960:
  7284  0022DC  5011               	movf	___fldiv@sign^0,w,c
  7285  0022DE  1204               	iorwf	(___fldiv@b+3)^0,f,c
  7286  0022E0  C001  F001         	movff	___fldiv@b,?___fldiv
  7287  0022E4  C002  F002         	movff	___fldiv@b+1,?___fldiv+1
  7288  0022E8  C003  F003         	movff	___fldiv@b+2,?___fldiv+2
  7289  0022EC  C004  F004         	movff	___fldiv@b+3,?___fldiv+3
  7290  0022F0  EFBD  F012         	goto	i2l712
  7291  0022F4                     i2l2966:
  7292  0022F4  5018               	movf	___fldiv@bexp^0,w,c
  7293  0022F6  A4D8               	btfss	status,2,c
  7294  0022F8  EF80  F011         	goto	i2u299_41
  7295  0022FC  EF82  F011         	goto	i2u299_40
  7296  002300                     i2u299_41:
  7297  002300  EF8C  F011         	goto	i2l2974
  7298  002304                     i2u299_40:
  7299  002304  0E00               	movlw	0
  7300  002306  6E01               	movwf	?___fldiv^0,c
  7301  002308  0E00               	movlw	0
  7302  00230A  6E02               	movwf	(?___fldiv+1)^0,c
  7303  00230C  0E00               	movlw	0
  7304  00230E  6E03               	movwf	(?___fldiv+2)^0,c
  7305  002310  0E00               	movlw	0
  7306  002312  6E04               	movwf	(?___fldiv+3)^0,c
  7307  002314  EFBD  F012         	goto	i2l712
  7308  002318                     i2l2974:
  7309  002318  5019               	movf	___fldiv@aexp^0,w,c
  7310  00231A  C018  F009         	movff	___fldiv@bexp,??___fldiv
  7311  00231E  6A0A               	clrf	(??___fldiv+1)^0,c
  7312  002320  5E09               	subwf	??___fldiv^0,f,c
  7313  002322  0E00               	movlw	0
  7314  002324  5A0A               	subwfb	(??___fldiv+1)^0,f,c
  7315  002326  0E7F               	movlw	127
  7316  002328  2409               	addwf	??___fldiv^0,w,c
  7317  00232A  6E12               	movwf	___fldiv@new_exp^0,c
  7318  00232C  0E00               	movlw	0
  7319  00232E  200A               	addwfc	(??___fldiv+1)^0,w,c
  7320  002330  6E13               	movwf	(___fldiv@new_exp+1)^0,c
  7321  002332  C001  F00D         	movff	___fldiv@b,___fldiv@rem
  7322  002336  C002  F00E         	movff	___fldiv@b+1,___fldiv@rem+1
  7323  00233A  C003  F00F         	movff	___fldiv@b+2,___fldiv@rem+2
  7324  00233E  C004  F010         	movff	___fldiv@b+3,___fldiv@rem+3
  7325  002342  0E00               	movlw	0
  7326  002344  6E01               	movwf	___fldiv@b^0,c
  7327  002346  0E00               	movlw	0
  7328  002348  6E02               	movwf	(___fldiv@b+1)^0,c
  7329  00234A  0E00               	movlw	0
  7330  00234C  6E03               	movwf	(___fldiv@b+2)^0,c
  7331  00234E  0E00               	movlw	0
  7332  002350  6E04               	movwf	(___fldiv@b+3)^0,c
  7333  002352  0E00               	movlw	0
  7334  002354  6E14               	movwf	___fldiv@grs^0,c
  7335  002356  0E00               	movlw	0
  7336  002358  6E15               	movwf	(___fldiv@grs+1)^0,c
  7337  00235A  0E00               	movlw	0
  7338  00235C  6E16               	movwf	(___fldiv@grs+2)^0,c
  7339  00235E  0E00               	movlw	0
  7340  002360  6E17               	movwf	(___fldiv@grs+3)^0,c
  7341  002362  0E00               	movlw	0
  7342  002364  6E19               	movwf	___fldiv@aexp^0,c
  7343  002366  EFED  F011         	goto	i2l714
  7344  00236A                     i2l2984:
  7345  00236A  5019               	movf	___fldiv@aexp^0,w,c
  7346  00236C  B4D8               	btfsc	status,2,c
  7347  00236E  EFBB  F011         	goto	i2u300_41
  7348  002372  EFBD  F011         	goto	i2u300_40
  7349  002376                     i2u300_41:
  7350  002376  EFD4  F011         	goto	i2l2992
  7351  00237A                     i2u300_40:
  7352  00237A  90D8               	bcf	status,0,c
  7353  00237C  360D               	rlcf	___fldiv@rem^0,f,c
  7354  00237E  360E               	rlcf	(___fldiv@rem+1)^0,f,c
  7355  002380  360F               	rlcf	(___fldiv@rem+2)^0,f,c
  7356  002382  3610               	rlcf	(___fldiv@rem+3)^0,f,c
  7357  002384  90D8               	bcf	status,0,c
  7358  002386  3601               	rlcf	___fldiv@b^0,f,c
  7359  002388  3602               	rlcf	(___fldiv@b+1)^0,f,c
  7360  00238A  3603               	rlcf	(___fldiv@b+2)^0,f,c
  7361  00238C  3604               	rlcf	(___fldiv@b+3)^0,f,c
  7362  00238E  AE17               	btfss	(___fldiv@grs+3)^0,7,c
  7363  002390  EFCC  F011         	goto	i2u301_41
  7364  002394  EFCE  F011         	goto	i2u301_40
  7365  002398                     i2u301_41:
  7366  002398  EFCF  F011         	goto	i2l717
  7367  00239C                     i2u301_40:
  7368  00239C  8001               	bsf	___fldiv@b^0,0,c
  7369  00239E                     i2l717:
  7370  00239E  90D8               	bcf	status,0,c
  7371  0023A0  3614               	rlcf	___fldiv@grs^0,f,c
  7372  0023A2  3615               	rlcf	(___fldiv@grs+1)^0,f,c
  7373  0023A4  3616               	rlcf	(___fldiv@grs+2)^0,f,c
  7374  0023A6  3617               	rlcf	(___fldiv@grs+3)^0,f,c
  7375  0023A8                     i2l2992:
  7376  0023A8  5005               	movf	___fldiv@a^0,w,c
  7377  0023AA  5C0D               	subwf	___fldiv@rem^0,w,c
  7378  0023AC  5006               	movf	(___fldiv@a+1)^0,w,c
  7379  0023AE  580E               	subwfb	(___fldiv@rem+1)^0,w,c
  7380  0023B0  5007               	movf	(___fldiv@a+2)^0,w,c
  7381  0023B2  580F               	subwfb	(___fldiv@rem+2)^0,w,c
  7382  0023B4  5008               	movf	(___fldiv@a+3)^0,w,c
  7383  0023B6  5810               	subwfb	(___fldiv@rem+3)^0,w,c
  7384  0023B8  A0D8               	btfss	status,0,c
  7385  0023BA  EFE1  F011         	goto	i2u302_41
  7386  0023BE  EFE3  F011         	goto	i2u302_40
  7387  0023C2                     i2u302_41:
  7388  0023C2  EFEC  F011         	goto	i2l2998
  7389  0023C6                     i2u302_40:
  7390  0023C6  8C17               	bsf	(___fldiv@grs+3)^0,6,c
  7391  0023C8  5005               	movf	___fldiv@a^0,w,c
  7392  0023CA  5E0D               	subwf	___fldiv@rem^0,f,c
  7393  0023CC  5006               	movf	(___fldiv@a+1)^0,w,c
  7394  0023CE  5A0E               	subwfb	(___fldiv@rem+1)^0,f,c
  7395  0023D0  5007               	movf	(___fldiv@a+2)^0,w,c
  7396  0023D2  5A0F               	subwfb	(___fldiv@rem+2)^0,f,c
  7397  0023D4  5008               	movf	(___fldiv@a+3)^0,w,c
  7398  0023D6  5A10               	subwfb	(___fldiv@rem+3)^0,f,c
  7399  0023D8                     i2l2998:
  7400  0023D8  2A19               	incf	___fldiv@aexp^0,f,c
  7401  0023DA                     i2l714:
  7402  0023DA  0E19               	movlw	25
  7403  0023DC  6419               	cpfsgt	___fldiv@aexp^0,c
  7404  0023DE  EFF3  F011         	goto	i2u303_41
  7405  0023E2  EFF5  F011         	goto	i2u303_40
  7406  0023E6                     i2u303_41:
  7407  0023E6  EFB5  F011         	goto	i2l2984
  7408  0023EA                     i2u303_40:
  7409  0023EA  500D               	movf	___fldiv@rem^0,w,c
  7410  0023EC  100E               	iorwf	(___fldiv@rem+1)^0,w,c
  7411  0023EE  100F               	iorwf	(___fldiv@rem+2)^0,w,c
  7412  0023F0  1010               	iorwf	(___fldiv@rem+3)^0,w,c
  7413  0023F2  B4D8               	btfsc	status,2,c
  7414  0023F4  EFFE  F011         	goto	i2u304_41
  7415  0023F8  EF00  F012         	goto	i2u304_40
  7416  0023FC                     i2u304_41:
  7417  0023FC  EF18  F012         	goto	i2l3010
  7418  002400                     i2u304_40:
  7419  002400  8014               	bsf	___fldiv@grs^0,0,c
  7420  002402  EF18  F012         	goto	i2l3010
  7421  002406                     i2l3004:
  7422  002406  90D8               	bcf	status,0,c
  7423  002408  3601               	rlcf	___fldiv@b^0,f,c
  7424  00240A  3602               	rlcf	(___fldiv@b+1)^0,f,c
  7425  00240C  3603               	rlcf	(___fldiv@b+2)^0,f,c
  7426  00240E  3604               	rlcf	(___fldiv@b+3)^0,f,c
  7427  002410  AE17               	btfss	(___fldiv@grs+3)^0,7,c
  7428  002412  EF0D  F012         	goto	i2u305_41
  7429  002416  EF0F  F012         	goto	i2u305_40
  7430  00241A                     i2u305_41:
  7431  00241A  EF10  F012         	goto	i2l723
  7432  00241E                     i2u305_40:
  7433  00241E  8001               	bsf	___fldiv@b^0,0,c
  7434  002420                     i2l723:
  7435  002420  90D8               	bcf	status,0,c
  7436  002422  3614               	rlcf	___fldiv@grs^0,f,c
  7437  002424  3615               	rlcf	(___fldiv@grs+1)^0,f,c
  7438  002426  3616               	rlcf	(___fldiv@grs+2)^0,f,c
  7439  002428  3617               	rlcf	(___fldiv@grs+3)^0,f,c
  7440  00242A  0612               	decf	___fldiv@new_exp^0,f,c
  7441  00242C  A0D8               	btfss	status,0,c
  7442  00242E  0613               	decf	(___fldiv@new_exp+1)^0,f,c
  7443  002430                     i2l3010:
  7444  002430  AE03               	btfss	(___fldiv@b+2)^0,7,c
  7445  002432  EF1D  F012         	goto	i2u306_41
  7446  002436  EF1F  F012         	goto	i2u306_40
  7447  00243A                     i2u306_41:
  7448  00243A  EF03  F012         	goto	i2l3004
  7449  00243E                     i2u306_40:
  7450  00243E  0E00               	movlw	0
  7451  002440  6E19               	movwf	___fldiv@aexp^0,c
  7452  002442  AE17               	btfss	(___fldiv@grs+3)^0,7,c
  7453  002444  EF26  F012         	goto	i2u307_41
  7454  002448  EF28  F012         	goto	i2u307_40
  7455  00244C                     i2u307_41:
  7456  00244C  EF4C  F012         	goto	i2l725
  7457  002450                     i2u307_40:
  7458  002450  0EFF               	movlw	255
  7459  002452  1414               	andwf	___fldiv@grs^0,w,c
  7460  002454  6E09               	movwf	??___fldiv^0,c
  7461  002456  0EFF               	movlw	255
  7462  002458  1415               	andwf	(___fldiv@grs+1)^0,w,c
  7463  00245A  6E0A               	movwf	(??___fldiv+1)^0,c
  7464  00245C  0EFF               	movlw	255
  7465  00245E  1416               	andwf	(___fldiv@grs+2)^0,w,c
  7466  002460  6E0B               	movwf	(??___fldiv+2)^0,c
  7467  002462  0E7F               	movlw	127
  7468  002464  1417               	andwf	(___fldiv@grs+3)^0,w,c
  7469  002466  6E0C               	movwf	(??___fldiv+3)^0,c
  7470  002468  5009               	movf	??___fldiv^0,w,c
  7471  00246A  100A               	iorwf	(??___fldiv+1)^0,w,c
  7472  00246C  100B               	iorwf	(??___fldiv+2)^0,w,c
  7473  00246E  100C               	iorwf	(??___fldiv+3)^0,w,c
  7474  002470  B4D8               	btfsc	status,2,c
  7475  002472  EF3D  F012         	goto	i2u308_41
  7476  002476  EF3F  F012         	goto	i2u308_40
  7477  00247A                     i2u308_41:
  7478  00247A  EF43  F012         	goto	i2l726
  7479  00247E                     i2u308_40:
  7480  00247E                     i2l3018:
  7481  00247E  0E01               	movlw	1
  7482  002480  6E19               	movwf	___fldiv@aexp^0,c
  7483  002482  EF4C  F012         	goto	i2l725
  7484  002486                     i2l726:
  7485  002486  A001               	btfss	___fldiv@b^0,0,c
  7486  002488  EF48  F012         	goto	i2u309_41
  7487  00248C  EF4A  F012         	goto	i2u309_40
  7488  002490                     i2u309_41:
  7489  002490  EF4C  F012         	goto	i2l725
  7490  002494                     i2u309_40:
  7491  002494  EF3F  F012         	goto	i2l3018
  7492  002498                     i2l725:
  7493  002498  5019               	movf	___fldiv@aexp^0,w,c
  7494  00249A  B4D8               	btfsc	status,2,c
  7495  00249C  EF52  F012         	goto	i2u310_41
  7496  0024A0  EF54  F012         	goto	i2u310_40
  7497  0024A4                     i2u310_41:
  7498  0024A4  EF78  F012         	goto	i2l3030
  7499  0024A8                     i2u310_40:
  7500  0024A8  0E01               	movlw	1
  7501  0024AA  2601               	addwf	___fldiv@b^0,f,c
  7502  0024AC  0E00               	movlw	0
  7503  0024AE  2202               	addwfc	(___fldiv@b+1)^0,f,c
  7504  0024B0  2203               	addwfc	(___fldiv@b+2)^0,f,c
  7505  0024B2  2204               	addwfc	(___fldiv@b+3)^0,f,c
  7506  0024B4  A004               	btfss	(___fldiv@b+3)^0,0,c
  7507  0024B6  EF5F  F012         	goto	i2u311_41
  7508  0024BA  EF61  F012         	goto	i2u311_40
  7509  0024BE                     i2u311_41:
  7510  0024BE  EF78  F012         	goto	i2l3030
  7511  0024C2                     i2u311_40:
  7512  0024C2  C001  F009         	movff	___fldiv@b,??___fldiv
  7513  0024C6  C002  F00A         	movff	___fldiv@b+1,??___fldiv+1
  7514  0024CA  C003  F00B         	movff	___fldiv@b+2,??___fldiv+2
  7515  0024CE  C004  F00C         	movff	___fldiv@b+3,??___fldiv+3
  7516  0024D2  340C               	rlcf	(??___fldiv+3)^0,w,c
  7517  0024D4  320C               	rrcf	(??___fldiv+3)^0,f,c
  7518  0024D6  320B               	rrcf	(??___fldiv+2)^0,f,c
  7519  0024D8  320A               	rrcf	(??___fldiv+1)^0,f,c
  7520  0024DA  3209               	rrcf	??___fldiv^0,f,c
  7521  0024DC  C009  F001         	movff	??___fldiv,___fldiv@b
  7522  0024E0  C00A  F002         	movff	??___fldiv+1,___fldiv@b+1
  7523  0024E4  C00B  F003         	movff	??___fldiv+2,___fldiv@b+2
  7524  0024E8  C00C  F004         	movff	??___fldiv+3,___fldiv@b+3
  7525  0024EC  4A12               	infsnz	___fldiv@new_exp^0,f,c
  7526  0024EE  2A13               	incf	(___fldiv@new_exp+1)^0,f,c
  7527  0024F0                     i2l3030:
  7528  0024F0  BE13               	btfsc	(___fldiv@new_exp+1)^0,7,c
  7529  0024F2  EF83  F012         	goto	i2u312_41
  7530  0024F6  5013               	movf	(___fldiv@new_exp+1)^0,w,c
  7531  0024F8  E108               	bnz	i2u312_40
  7532  0024FA  2812               	incf	___fldiv@new_exp^0,w,c
  7533  0024FC  A0D8               	btfss	status,0,c
  7534  0024FE  EF83  F012         	goto	i2u312_41
  7535  002502  EF85  F012         	goto	i2u312_40
  7536  002506                     i2u312_41:
  7537  002506  EF90  F012         	goto	i2l3034
  7538  00250A                     i2u312_40:
  7539  00250A  0E00               	movlw	0
  7540  00250C  6E13               	movwf	(___fldiv@new_exp+1)^0,c
  7541  00250E  6812               	setf	___fldiv@new_exp^0,c
  7542  002510  0E00               	movlw	0
  7543  002512  6E01               	movwf	___fldiv@b^0,c
  7544  002514  0E00               	movlw	0
  7545  002516  6E02               	movwf	(___fldiv@b+1)^0,c
  7546  002518  0E00               	movlw	0
  7547  00251A  6E03               	movwf	(___fldiv@b+2)^0,c
  7548  00251C  0E00               	movlw	0
  7549  00251E  6E04               	movwf	(___fldiv@b+3)^0,c
  7550  002520                     i2l3034:
  7551  002520  BE13               	btfsc	(___fldiv@new_exp+1)^0,7,c
  7552  002522  EF9D  F012         	goto	i2u313_40
  7553  002526  5013               	movf	(___fldiv@new_exp+1)^0,w,c
  7554  002528  E106               	bnz	i2u313_41
  7555  00252A  0412               	decf	___fldiv@new_exp^0,w,c
  7556  00252C  B0D8               	btfsc	status,0,c
  7557  00252E  EF9B  F012         	goto	i2u313_41
  7558  002532  EF9D  F012         	goto	i2u313_40
  7559  002536                     i2u313_41:
  7560  002536  EFAB  F012         	goto	i2l3038
  7561  00253A                     i2u313_40:
  7562  00253A  0E00               	movlw	0
  7563  00253C  6E13               	movwf	(___fldiv@new_exp+1)^0,c
  7564  00253E  0E00               	movlw	0
  7565  002540  6E12               	movwf	___fldiv@new_exp^0,c
  7566  002542  0E00               	movlw	0
  7567  002544  6E01               	movwf	___fldiv@b^0,c
  7568  002546  0E00               	movlw	0
  7569  002548  6E02               	movwf	(___fldiv@b+1)^0,c
  7570  00254A  0E00               	movlw	0
  7571  00254C  6E03               	movwf	(___fldiv@b+2)^0,c
  7572  00254E  0E00               	movlw	0
  7573  002550  6E04               	movwf	(___fldiv@b+3)^0,c
  7574  002552  0E00               	movlw	0
  7575  002554  6E11               	movwf	___fldiv@sign^0,c
  7576  002556                     i2l3038:
  7577  002556  C012  F018         	movff	___fldiv@new_exp,___fldiv@bexp
  7578  00255A  A018               	btfss	___fldiv@bexp^0,0,c
  7579  00255C  EFB2  F012         	goto	i2u314_41
  7580  002560  EFB4  F012         	goto	i2u314_40
  7581  002564                     i2u314_41:
  7582  002564  EFB7  F012         	goto	i2l3044
  7583  002568                     i2u314_40:
  7584  002568  8E03               	bsf	(___fldiv@b+2)^0,7,c
  7585  00256A  EFB8  F012         	goto	i2l3046
  7586  00256E                     i2l3044:
  7587  00256E  9E03               	bcf	(___fldiv@b+2)^0,7,c
  7588  002570                     i2l3046:
  7589  002570  90D8               	bcf	status,0,c
  7590  002572  3018               	rrcf	___fldiv@bexp^0,w,c
  7591  002574  6E04               	movwf	(___fldiv@b+3)^0,c
  7592  002576  EF6E  F011         	goto	i2l2960
  7593  00257A                     i2l712:
  7594  00257A  0012               	return		;funcret
  7595  00257C                     __end_of___fldiv:
  7596                           	callstack 0
  7597                           
  7598 ;; *************** function ___awmod *****************
  7599 ;; Defined at:
  7600 ;;		line 7 in file "C:\Program Files\Microchip\xc8\v2.20\pic\sources\c99\common\awmod.c"
  7601 ;; Parameters:    Size  Location     Type
  7602 ;;  dividend        2    0[COMRAM] int 
  7603 ;;  divisor         2    2[COMRAM] int 
  7604 ;; Auto vars:     Size  Location     Type
  7605 ;;  sign            1    5[COMRAM] unsigned char 
  7606 ;;  counter         1    4[COMRAM] unsigned char 
  7607 ;; Return value:  Size  Location     Type
  7608 ;;                  2    0[COMRAM] int 
  7609 ;; Registers used:
  7610 ;;		wreg, status,2, status,0
  7611 ;; Tracked objects:
  7612 ;;		On entry : 0/0
  7613 ;;		On exit  : 0/0
  7614 ;;		Unchanged: 0/0
  7615 ;; Data sizes:     COMRAM   BANK0   BANK1   BANK2   BANK3   BANK4   BANK5   BANK6   BANK7
  7616 ;;      Params:         4       0       0       0       0       0       0       0       0
  7617 ;;      Locals:         2       0       0       0       0       0       0       0       0
  7618 ;;      Temps:          0       0       0       0       0       0       0       0       0
  7619 ;;      Totals:         6       0       0       0       0       0       0       0       0
  7620 ;;Total ram usage:        6 bytes
  7621 ;; Hardware stack levels used:    1
  7622 ;; This function calls:
  7623 ;;		Nothing
  7624 ;; This function is called by:
  7625 ;;		_efgtoa
  7626 ;; This function uses a non-reentrant model
  7627 ;;
  7628                           
  7629                           	psect	text31
  7630  00320C                     __ptext31:
  7631                           	callstack 0
  7632  00320C                     ___awmod:
  7633                           	callstack 22
  7634  00320C  0E00               	movlw	0
  7635  00320E  6E06               	movwf	___awmod@sign^0,c
  7636  003210  BE02               	btfsc	(___awmod@dividend+1)^0,7,c
  7637  003212  EF0F  F019         	goto	i2u340_40
  7638  003216  EF0D  F019         	goto	i2u340_41
  7639  00321A                     i2u340_41:
  7640  00321A  EF15  F019         	goto	i2l3242
  7641  00321E                     i2u340_40:
  7642  00321E  6C01               	negf	___awmod@dividend^0,c
  7643  003220  1E02               	comf	(___awmod@dividend+1)^0,f,c
  7644  003222  B0D8               	btfsc	status,0,c
  7645  003224  2A02               	incf	(___awmod@dividend+1)^0,f,c
  7646  003226  0E01               	movlw	1
  7647  003228  6E06               	movwf	___awmod@sign^0,c
  7648  00322A                     i2l3242:
  7649  00322A  BE04               	btfsc	(___awmod@divisor+1)^0,7,c
  7650  00322C  EF1C  F019         	goto	i2u341_40
  7651  003230  EF1A  F019         	goto	i2u341_41
  7652  003234                     i2u341_41:
  7653  003234  EF20  F019         	goto	i2l3246
  7654  003238                     i2u341_40:
  7655  003238  6C03               	negf	___awmod@divisor^0,c
  7656  00323A  1E04               	comf	(___awmod@divisor+1)^0,f,c
  7657  00323C  B0D8               	btfsc	status,0,c
  7658  00323E  2A04               	incf	(___awmod@divisor+1)^0,f,c
  7659  003240                     i2l3246:
  7660  003240  5003               	movf	___awmod@divisor^0,w,c
  7661  003242  1004               	iorwf	(___awmod@divisor+1)^0,w,c
  7662  003244  B4D8               	btfsc	status,2,c
  7663  003246  EF27  F019         	goto	i2u342_41
  7664  00324A  EF29  F019         	goto	i2u342_40
  7665  00324E                     i2u342_41:
  7666  00324E  EF4D  F019         	goto	i2l3262
  7667  003252                     i2u342_40:
  7668  003252  0E01               	movlw	1
  7669  003254  6E05               	movwf	___awmod@counter^0,c
  7670  003256  EF31  F019         	goto	i2l3252
  7671  00325A                     i2l3250:
  7672  00325A  90D8               	bcf	status,0,c
  7673  00325C  3603               	rlcf	___awmod@divisor^0,f,c
  7674  00325E  3604               	rlcf	(___awmod@divisor+1)^0,f,c
  7675  003260  2A05               	incf	___awmod@counter^0,f,c
  7676  003262                     i2l3252:
  7677  003262  AE04               	btfss	(___awmod@divisor+1)^0,7,c
  7678  003264  EF36  F019         	goto	i2u343_41
  7679  003268  EF38  F019         	goto	i2u343_40
  7680  00326C                     i2u343_41:
  7681  00326C  EF2D  F019         	goto	i2l3250
  7682  003270                     i2u343_40:
  7683  003270                     i2l3254:
  7684  003270  5003               	movf	___awmod@divisor^0,w,c
  7685  003272  5C01               	subwf	___awmod@dividend^0,w,c
  7686  003274  5004               	movf	(___awmod@divisor+1)^0,w,c
  7687  003276  5802               	subwfb	(___awmod@dividend+1)^0,w,c
  7688  003278  A0D8               	btfss	status,0,c
  7689  00327A  EF41  F019         	goto	i2u344_41
  7690  00327E  EF43  F019         	goto	i2u344_40
  7691  003282                     i2u344_41:
  7692  003282  EF47  F019         	goto	i2l3258
  7693  003286                     i2u344_40:
  7694  003286  5003               	movf	___awmod@divisor^0,w,c
  7695  003288  5E01               	subwf	___awmod@dividend^0,f,c
  7696  00328A  5004               	movf	(___awmod@divisor+1)^0,w,c
  7697  00328C  5A02               	subwfb	(___awmod@dividend+1)^0,f,c
  7698  00328E                     i2l3258:
  7699  00328E  90D8               	bcf	status,0,c
  7700  003290  3204               	rrcf	(___awmod@divisor+1)^0,f,c
  7701  003292  3203               	rrcf	___awmod@divisor^0,f,c
  7702  003294  2E05               	decfsz	___awmod@counter^0,f,c
  7703  003296  EF38  F019         	goto	i2l3254
  7704  00329A                     i2l3262:
  7705  00329A  5006               	movf	___awmod@sign^0,w,c
  7706  00329C  B4D8               	btfsc	status,2,c
  7707  00329E  EF53  F019         	goto	i2u345_41
  7708  0032A2  EF55  F019         	goto	i2u345_40
  7709  0032A6                     i2u345_41:
  7710  0032A6  EF59  F019         	goto	i2l3266
  7711  0032AA                     i2u345_40:
  7712  0032AA  6C01               	negf	___awmod@dividend^0,c
  7713  0032AC  1E02               	comf	(___awmod@dividend+1)^0,f,c
  7714  0032AE  B0D8               	btfsc	status,0,c
  7715  0032B0  2A02               	incf	(___awmod@dividend+1)^0,f,c
  7716  0032B2                     i2l3266:
  7717  0032B2  C001  F001         	movff	___awmod@dividend,?___awmod
  7718  0032B6  C002  F002         	movff	___awmod@dividend+1,?___awmod+1
  7719  0032BA  0012               	return		;funcret
  7720  0032BC                     __end_of___awmod:
  7721                           	callstack 0
  7722                           
  7723 ;; *************** function ___awdiv *****************
  7724 ;; Defined at:
  7725 ;;		line 7 in file "C:\Program Files\Microchip\xc8\v2.20\pic\sources\c99\common\awdiv.c"
  7726 ;; Parameters:    Size  Location     Type
  7727 ;;  dividend        2    0[COMRAM] int 
  7728 ;;  divisor         2    2[COMRAM] int 
  7729 ;; Auto vars:     Size  Location     Type
  7730 ;;  quotient        2    6[COMRAM] int 
  7731 ;;  sign            1    5[COMRAM] unsigned char 
  7732 ;;  counter         1    4[COMRAM] unsigned char 
  7733 ;; Return value:  Size  Location     Type
  7734 ;;                  2    0[COMRAM] int 
  7735 ;; Registers used:
  7736 ;;		wreg, status,2, status,0
  7737 ;; Tracked objects:
  7738 ;;		On entry : 0/0
  7739 ;;		On exit  : 0/0
  7740 ;;		Unchanged: 0/0
  7741 ;; Data sizes:     COMRAM   BANK0   BANK1   BANK2   BANK3   BANK4   BANK5   BANK6   BANK7
  7742 ;;      Params:         4       0       0       0       0       0       0       0       0
  7743 ;;      Locals:         4       0       0       0       0       0       0       0       0
  7744 ;;      Temps:          0       0       0       0       0       0       0       0       0
  7745 ;;      Totals:         8       0       0       0       0       0       0       0       0
  7746 ;;Total ram usage:        8 bytes
  7747 ;; Hardware stack levels used:    1
  7748 ;; This function calls:
  7749 ;;		Nothing
  7750 ;; This function is called by:
  7751 ;;		_efgtoa
  7752 ;; This function uses a non-reentrant model
  7753 ;;
  7754                           
  7755                           	psect	text32
  7756  003148                     __ptext32:
  7757                           	callstack 0
  7758  003148                     ___awdiv:
  7759                           	callstack 22
  7760  003148  0E00               	movlw	0
  7761  00314A  6E06               	movwf	___awdiv@sign^0,c
  7762  00314C  BE04               	btfsc	(___awdiv@divisor+1)^0,7,c
  7763  00314E  EFAD  F018         	goto	i2u334_40
  7764  003152  EFAB  F018         	goto	i2u334_41
  7765  003156                     i2u334_41:
  7766  003156  EFB3  F018         	goto	i2l3198
  7767  00315A                     i2u334_40:
  7768  00315A  6C03               	negf	___awdiv@divisor^0,c
  7769  00315C  1E04               	comf	(___awdiv@divisor+1)^0,f,c
  7770  00315E  B0D8               	btfsc	status,0,c
  7771  003160  2A04               	incf	(___awdiv@divisor+1)^0,f,c
  7772  003162  0E01               	movlw	1
  7773  003164  6E06               	movwf	___awdiv@sign^0,c
  7774  003166                     i2l3198:
  7775  003166  BE02               	btfsc	(___awdiv@dividend+1)^0,7,c
  7776  003168  EFBA  F018         	goto	i2u335_40
  7777  00316C  EFB8  F018         	goto	i2u335_41
  7778  003170                     i2u335_41:
  7779  003170  EFC0  F018         	goto	i2l3204
  7780  003174                     i2u335_40:
  7781  003174  6C01               	negf	___awdiv@dividend^0,c
  7782  003176  1E02               	comf	(___awdiv@dividend+1)^0,f,c
  7783  003178  B0D8               	btfsc	status,0,c
  7784  00317A  2A02               	incf	(___awdiv@dividend+1)^0,f,c
  7785  00317C  0E01               	movlw	1
  7786  00317E  1A06               	xorwf	___awdiv@sign^0,f,c
  7787  003180                     i2l3204:
  7788  003180  0E00               	movlw	0
  7789  003182  6E08               	movwf	(___awdiv@quotient+1)^0,c
  7790  003184  0E00               	movlw	0
  7791  003186  6E07               	movwf	___awdiv@quotient^0,c
  7792  003188  5003               	movf	___awdiv@divisor^0,w,c
  7793  00318A  1004               	iorwf	(___awdiv@divisor+1)^0,w,c
  7794  00318C  B4D8               	btfsc	status,2,c
  7795  00318E  EFCB  F018         	goto	i2u336_41
  7796  003192  EFCD  F018         	goto	i2u336_40
  7797  003196                     i2u336_41:
  7798  003196  EFF5  F018         	goto	i2l3226
  7799  00319A                     i2u336_40:
  7800  00319A  0E01               	movlw	1
  7801  00319C  6E05               	movwf	___awdiv@counter^0,c
  7802  00319E  EFD5  F018         	goto	i2l3212
  7803  0031A2                     i2l3210:
  7804  0031A2  90D8               	bcf	status,0,c
  7805  0031A4  3603               	rlcf	___awdiv@divisor^0,f,c
  7806  0031A6  3604               	rlcf	(___awdiv@divisor+1)^0,f,c
  7807  0031A8  2A05               	incf	___awdiv@counter^0,f,c
  7808  0031AA                     i2l3212:
  7809  0031AA  AE04               	btfss	(___awdiv@divisor+1)^0,7,c
  7810  0031AC  EFDA  F018         	goto	i2u337_41
  7811  0031B0  EFDC  F018         	goto	i2u337_40
  7812  0031B4                     i2u337_41:
  7813  0031B4  EFD1  F018         	goto	i2l3210
  7814  0031B8                     i2u337_40:
  7815  0031B8                     i2l3214:
  7816  0031B8  90D8               	bcf	status,0,c
  7817  0031BA  3607               	rlcf	___awdiv@quotient^0,f,c
  7818  0031BC  3608               	rlcf	(___awdiv@quotient+1)^0,f,c
  7819  0031BE  5003               	movf	___awdiv@divisor^0,w,c
  7820  0031C0  5C01               	subwf	___awdiv@dividend^0,w,c
  7821  0031C2  5004               	movf	(___awdiv@divisor+1)^0,w,c
  7822  0031C4  5802               	subwfb	(___awdiv@dividend+1)^0,w,c
  7823  0031C6  A0D8               	btfss	status,0,c
  7824  0031C8  EFE8  F018         	goto	i2u338_41
  7825  0031CC  EFEA  F018         	goto	i2u338_40
  7826  0031D0                     i2u338_41:
  7827  0031D0  EFEF  F018         	goto	i2l3222
  7828  0031D4                     i2u338_40:
  7829  0031D4  5003               	movf	___awdiv@divisor^0,w,c
  7830  0031D6  5E01               	subwf	___awdiv@dividend^0,f,c
  7831  0031D8  5004               	movf	(___awdiv@divisor+1)^0,w,c
  7832  0031DA  5A02               	subwfb	(___awdiv@dividend+1)^0,f,c
  7833  0031DC  8007               	bsf	___awdiv@quotient^0,0,c
  7834  0031DE                     i2l3222:
  7835  0031DE  90D8               	bcf	status,0,c
  7836  0031E0  3204               	rrcf	(___awdiv@divisor+1)^0,f,c
  7837  0031E2  3203               	rrcf	___awdiv@divisor^0,f,c
  7838  0031E4  2E05               	decfsz	___awdiv@counter^0,f,c
  7839  0031E6  EFDC  F018         	goto	i2l3214
  7840  0031EA                     i2l3226:
  7841  0031EA  5006               	movf	___awdiv@sign^0,w,c
  7842  0031EC  B4D8               	btfsc	status,2,c
  7843  0031EE  EFFB  F018         	goto	i2u339_41
  7844  0031F2  EFFD  F018         	goto	i2u339_40
  7845  0031F6                     i2u339_41:
  7846  0031F6  EF01  F019         	goto	i2l3230
  7847  0031FA                     i2u339_40:
  7848  0031FA  6C07               	negf	___awdiv@quotient^0,c
  7849  0031FC  1E08               	comf	(___awdiv@quotient+1)^0,f,c
  7850  0031FE  B0D8               	btfsc	status,0,c
  7851  003200  2A08               	incf	(___awdiv@quotient+1)^0,f,c
  7852  003202                     i2l3230:
  7853  003202  C007  F001         	movff	___awdiv@quotient,?___awdiv
  7854  003206  C008  F002         	movff	___awdiv@quotient+1,?___awdiv+1
  7855  00320A  0012               	return		;funcret
  7856  00320C                     __end_of___awdiv:
  7857                           	callstack 0
  7858                           
  7859 ;; *************** function _atoi *****************
  7860 ;; Defined at:
  7861 ;;		line 4 in file "C:\Program Files\Microchip\xc8\v2.20\pic\sources\c99\common\atoi.c"
  7862 ;; Parameters:    Size  Location     Type
  7863 ;;  s               2    7[COMRAM] PTR const unsigned char 
  7864 ;;		 -> STR_1(12), 
  7865 ;; Auto vars:     Size  Location     Type
  7866 ;;  n               2   20[COMRAM] int 
  7867 ;;  neg             2   13[COMRAM] int 
  7868 ;; Return value:  Size  Location     Type
  7869 ;;                  2    7[COMRAM] int 
  7870 ;; Registers used:
  7871 ;;		wreg, status,2, status,0, tblptrl, tblptrh, tblptru, prodl, prodh, cstack
  7872 ;; Tracked objects:
  7873 ;;		On entry : 0/0
  7874 ;;		On exit  : 0/0
  7875 ;;		Unchanged: 0/0
  7876 ;; Data sizes:     COMRAM   BANK0   BANK1   BANK2   BANK3   BANK4   BANK5   BANK6   BANK7
  7877 ;;      Params:         2       0       0       0       0       0       0       0       0
  7878 ;;      Locals:         9       0       0       0       0       0       0       0       0
  7879 ;;      Temps:          4       0       0       0       0       0       0       0       0
  7880 ;;      Totals:        15       0       0       0       0       0       0       0       0
  7881 ;;Total ram usage:       15 bytes
  7882 ;; Hardware stack levels used:    1
  7883 ;; Hardware stack levels required when called:    1
  7884 ;; This function calls:
  7885 ;;		___wmul
  7886 ;;		_isdigit
  7887 ;;		_isspace
  7888 ;; This function is called by:
  7889 ;;		_vfpfcnvrt
  7890 ;; This function uses a non-reentrant model
  7891 ;;
  7892                           
  7893                           	psect	text33
  7894  002942                     __ptext33:
  7895                           	callstack 0
  7896  002942                     _atoi:
  7897                           	callstack 22
  7898  002942  0E00               	movlw	0
  7899  002944  6E16               	movwf	(atoi@n+1)^0,c
  7900  002946  0E00               	movlw	0
  7901  002948  6E15               	movwf	atoi@n^0,c
  7902  00294A  0E00               	movlw	0
  7903  00294C  6E0F               	movwf	(atoi@neg+1)^0,c
  7904  00294E  0E00               	movlw	0
  7905  002950  6E0E               	movwf	atoi@neg^0,c
  7906  002952  EFAD  F014         	goto	i2l3764
  7907  002956                     i2l3762:
  7908  002956  4A08               	infsnz	atoi@s^0,f,c
  7909  002958  2A09               	incf	(atoi@s+1)^0,f,c
  7910  00295A                     i2l3764:
  7911  00295A  0E01               	movlw	1
  7912  00295C  6E14               	movwf	_atoi$1386^0,c
  7913  00295E  C008  FFF6         	movff	atoi@s,tblptrl
  7914  002962  C009  FFF7         	movff	atoi@s+1,tblptrh
  7915  002966                     	if	0	;tblptru may be non-zero
  7916  002966                     	endif
  7917  002966                     	if	0	;tblptru may be non-zero
  7918  002966                     	endif
  7919  002966  0008               	tblrd		*
  7920  002968  50F5               	movf	tablat,w,c
  7921  00296A  0A20               	xorlw	32
  7922  00296C  B4D8               	btfsc	status,2,c
  7923  00296E  EFBB  F014         	goto	i2u444_41
  7924  002972  EFBD  F014         	goto	i2u444_40
  7925  002976                     i2u444_41:
  7926  002976  EFDA  F014         	goto	i2l3772
  7927  00297A                     i2u444_40:
  7928  00297A  0EF7               	movlw	247
  7929  00297C  6E0A               	movwf	??_atoi^0,c
  7930  00297E  0EFF               	movlw	255
  7931  002980  6E0B               	movwf	(??_atoi+1)^0,c
  7932  002982  C008  FFF6         	movff	atoi@s,tblptrl
  7933  002986  C009  FFF7         	movff	atoi@s+1,tblptrh
  7934  00298A                     	if	0	;tblptru may be non-zero
  7935  00298A                     	endif
  7936  00298A                     	if	0	;tblptru may be non-zero
  7937  00298A                     	endif
  7938  00298A  0008               	tblrd		*
  7939  00298C  50F5               	movf	tablat,w,c
  7940  00298E  6E0C               	movwf	(??_atoi+2)^0,c
  7941  002990  6A0D               	clrf	(??_atoi+3)^0,c
  7942  002992  500A               	movf	??_atoi^0,w,c
  7943  002994  260C               	addwf	(??_atoi+2)^0,f,c
  7944  002996  500B               	movf	(??_atoi+1)^0,w,c
  7945  002998  220D               	addwfc	(??_atoi+3)^0,f,c
  7946  00299A  500D               	movf	(??_atoi+3)^0,w,c
  7947  00299C  E109               	bnz	i2u445_40
  7948  00299E  0E05               	movlw	5
  7949  0029A0  5C0C               	subwf	(??_atoi+2)^0,w,c
  7950  0029A2  A0D8               	btfss	status,0,c
  7951  0029A4  EFD6  F014         	goto	i2u445_41
  7952  0029A8  EFD8  F014         	goto	i2u445_40
  7953  0029AC                     i2u445_41:
  7954  0029AC  EFDA  F014         	goto	i2l3772
  7955  0029B0                     i2u445_40:
  7956  0029B0  0E00               	movlw	0
  7957  0029B2  6E14               	movwf	_atoi$1386^0,c
  7958  0029B4                     i2l3772:
  7959  0029B4  C014  F010         	movff	_atoi$1386,_atoi$1385
  7960  0029B8  6A11               	clrf	(_atoi$1385+1)^0,c
  7961  0029BA  5010               	movf	_atoi$1385^0,w,c
  7962  0029BC  1011               	iorwf	(_atoi$1385+1)^0,w,c
  7963  0029BE  A4D8               	btfss	status,2,c
  7964  0029C0  EFE4  F014         	goto	i2u446_41
  7965  0029C4  EFE6  F014         	goto	i2u446_40
  7966  0029C8                     i2u446_41:
  7967  0029C8  EFAB  F014         	goto	i2l3762
  7968  0029CC                     i2u446_40:
  7969  0029CC  EFF0  F014         	goto	i2l3782
  7970  0029D0                     i2l3778:
  7971  0029D0  0E00               	movlw	0
  7972  0029D2  6E0F               	movwf	(atoi@neg+1)^0,c
  7973  0029D4  0E01               	movlw	1
  7974  0029D6  6E0E               	movwf	atoi@neg^0,c
  7975  0029D8                     i2l3780:
  7976  0029D8  4A08               	infsnz	atoi@s^0,f,c
  7977  0029DA  2A09               	incf	(atoi@s+1)^0,f,c
  7978  0029DC  EF25  F015         	goto	i2l3788
  7979  0029E0                     i2l3782:
  7980  0029E0  C008  FFF6         	movff	atoi@s,tblptrl
  7981  0029E4  C009  FFF7         	movff	atoi@s+1,tblptrh
  7982  0029E8                     	if	0	;tblptru may be non-zero
  7983  0029E8                     	endif
  7984  0029E8                     	if	0	;tblptru may be non-zero
  7985  0029E8                     	endif
  7986  0029E8  0008               	tblrd		*
  7987  0029EA  50F5               	movf	tablat,w,c
  7988  0029EC  6E0A               	movwf	??_atoi^0,c
  7989  0029EE  6A0B               	clrf	(??_atoi+1)^0,c
  7990                           
  7991                           ; Switch on 2 bytes has been partitioned into a top level switch of size 1, and 1 sub-sw
      +                          itches
  7992                           ; Switch size 1, requested type "simple"
  7993                           ; Number of cases is 1, Range of values is 0 to 0
  7994                           ; switch strategies available:
  7995                           ; Name         Instructions Cycles
  7996                           ; simple_byte            4     3 (average)
  7997                           ;	Chosen strategy is simple_byte
  7998  0029F0  500B               	movf	(??_atoi+1)^0,w,c
  7999  0029F2  0A00               	xorlw	0	; case 0
  8000  0029F4  B4D8               	btfsc	status,2,c
  8001  0029F6  EFFF  F014         	goto	i2l4228
  8002  0029FA  EF25  F015         	goto	i2l3788
  8003  0029FE                     i2l4228:
  8004                           
  8005                           ; Switch size 1, requested type "simple"
  8006                           ; Number of cases is 2, Range of values is 43 to 45
  8007                           ; switch strategies available:
  8008                           ; Name         Instructions Cycles
  8009                           ; simple_byte            7     4 (average)
  8010                           ;	Chosen strategy is simple_byte
  8011  0029FE  500A               	movf	??_atoi^0,w,c
  8012  002A00  0A2B               	xorlw	43	; case 43
  8013  002A02  B4D8               	btfsc	status,2,c
  8014  002A04  EFEC  F014         	goto	i2l3780
  8015  002A08  0A06               	xorlw	6	; case 45
  8016  002A0A  B4D8               	btfsc	status,2,c
  8017  002A0C  EFE8  F014         	goto	i2l3778
  8018  002A10  EF25  F015         	goto	i2l3788
  8019  002A14                     i2l3784:
  8020  002A14  C015  F001         	movff	atoi@n,___wmul@multiplier
  8021  002A18  C016  F002         	movff	atoi@n+1,___wmul@multiplier+1
  8022  002A1C  0E00               	movlw	0
  8023  002A1E  6E04               	movwf	(___wmul@multiplicand+1)^0,c
  8024  002A20  0E0A               	movlw	10
  8025  002A22  6E03               	movwf	___wmul@multiplicand^0,c
  8026  002A24  EC61  F01C         	call	___wmul	;wreg free
  8027  002A28  C008  FFF6         	movff	atoi@s,tblptrl
  8028  002A2C  C009  FFF7         	movff	atoi@s+1,tblptrh
  8029  002A30                     	if	0	;tblptru may be non-zero
  8030  002A30                     	endif
  8031  002A30                     	if	0	;tblptru may be non-zero
  8032  002A30                     	endif
  8033  002A30  0008               	tblrd		*
  8034  002A32  50F5               	movf	tablat,w,c
  8035  002A34  5E01               	subwf	?___wmul^0,f,c
  8036  002A36  0E00               	movlw	0
  8037  002A38  5A02               	subwfb	(?___wmul+1)^0,f,c
  8038  002A3A  0E30               	movlw	48
  8039  002A3C  2401               	addwf	?___wmul^0,w,c
  8040  002A3E  6E15               	movwf	atoi@n^0,c
  8041  002A40  0E00               	movlw	0
  8042  002A42  2002               	addwfc	(?___wmul+1)^0,w,c
  8043  002A44  6E16               	movwf	(atoi@n+1)^0,c
  8044  002A46  EFEC  F014         	goto	i2l3780
  8045  002A4A                     i2l3788:
  8046  002A4A  0ED0               	movlw	208
  8047  002A4C  6E0A               	movwf	??_atoi^0,c
  8048  002A4E  0EFF               	movlw	255
  8049  002A50  6E0B               	movwf	(??_atoi+1)^0,c
  8050  002A52  C008  FFF6         	movff	atoi@s,tblptrl
  8051  002A56  C009  FFF7         	movff	atoi@s+1,tblptrh
  8052  002A5A                     	if	0	;tblptru may be non-zero
  8053  002A5A                     	endif
  8054  002A5A                     	if	0	;tblptru may be non-zero
  8055  002A5A                     	endif
  8056  002A5A  0008               	tblrd		*
  8057  002A5C  50F5               	movf	tablat,w,c
  8058  002A5E  6E0C               	movwf	(??_atoi+2)^0,c
  8059  002A60  6A0D               	clrf	(??_atoi+3)^0,c
  8060  002A62  500A               	movf	??_atoi^0,w,c
  8061  002A64  260C               	addwf	(??_atoi+2)^0,f,c
  8062  002A66  500B               	movf	(??_atoi+1)^0,w,c
  8063  002A68  220D               	addwfc	(??_atoi+3)^0,f,c
  8064  002A6A  500D               	movf	(??_atoi+3)^0,w,c
  8065  002A6C  E10A               	bnz	i2u447_40
  8066  002A6E  0E0A               	movlw	10
  8067  002A70  5C0C               	subwf	(??_atoi+2)^0,w,c
  8068  002A72  A0D8               	btfss	status,0,c
  8069  002A74  EF3E  F015         	goto	i2u447_41
  8070  002A78  EF41  F015         	goto	i2u447_40
  8071  002A7C                     i2u447_41:
  8072  002A7C  0E01               	movlw	1
  8073  002A7E  EF42  F015         	goto	i2u448_40
  8074  002A82                     i2u447_40:
  8075  002A82  0E00               	movlw	0
  8076  002A84                     i2u448_40:
  8077  002A84  6E12               	movwf	_atoi$1387^0,c
  8078  002A86  6A13               	clrf	(_atoi$1387+1)^0,c
  8079  002A88  5012               	movf	_atoi$1387^0,w,c
  8080  002A8A  1013               	iorwf	(_atoi$1387+1)^0,w,c
  8081  002A8C  A4D8               	btfss	status,2,c
  8082  002A8E  EF4B  F015         	goto	i2u449_41
  8083  002A92  EF4D  F015         	goto	i2u449_40
  8084  002A96                     i2u449_41:
  8085  002A96  EF0A  F015         	goto	i2l3784
  8086  002A9A                     i2u449_40:
  8087  002A9A  500E               	movf	atoi@neg^0,w,c
  8088  002A9C  100F               	iorwf	(atoi@neg+1)^0,w,c
  8089  002A9E  A4D8               	btfss	status,2,c
  8090  002AA0  EF54  F015         	goto	i2u450_41
  8091  002AA4  EF56  F015         	goto	i2u450_40
  8092  002AA8                     i2u450_41:
  8093  002AA8  EF64  F015         	goto	i2l1027
  8094  002AAC                     i2u450_40:
  8095  002AAC  C015  F00A         	movff	atoi@n,??_atoi
  8096  002AB0  C016  F00B         	movff	atoi@n+1,??_atoi+1
  8097  002AB4  1E0A               	comf	??_atoi^0,f,c
  8098  002AB6  1E0B               	comf	(??_atoi+1)^0,f,c
  8099  002AB8  4A0A               	infsnz	??_atoi^0,f,c
  8100  002ABA  2A0B               	incf	(??_atoi+1)^0,f,c
  8101  002ABC  C00A  F008         	movff	??_atoi,?_atoi
  8102  002AC0  C00B  F009         	movff	??_atoi+1,?_atoi+1
  8103  002AC4  EF68  F015         	goto	i2l1030
  8104  002AC8                     i2l1027:
  8105  002AC8  C015  F008         	movff	atoi@n,?_atoi
  8106  002ACC  C016  F009         	movff	atoi@n+1,?_atoi+1
  8107  002AD0                     i2l1030:
  8108  002AD0  0012               	return		;funcret
  8109  002AD2                     __end_of_atoi:
  8110                           	callstack 0
  8111                           
  8112 ;; *************** function _isspace *****************
  8113 ;; Defined at:
  8114 ;;		line 5 in file "C:\Program Files\Microchip\xc8\v2.20\pic\sources\c99\common\isspace.c"
  8115 ;; Parameters:    Size  Location     Type
  8116 ;;  c               2    0[COMRAM] int 
  8117 ;; Auto vars:     Size  Location     Type
  8118 ;;		None
  8119 ;; Return value:  Size  Location     Type
  8120 ;;                  2    0[COMRAM] int 
  8121 ;; Registers used:
  8122 ;;		wreg, status,2, status,0
  8123 ;; Tracked objects:
  8124 ;;		On entry : 0/0
  8125 ;;		On exit  : 0/0
  8126 ;;		Unchanged: 0/0
  8127 ;; Data sizes:     COMRAM   BANK0   BANK1   BANK2   BANK3   BANK4   BANK5   BANK6   BANK7
  8128 ;;      Params:         2       0       0       0       0       0       0       0       0
  8129 ;;      Locals:         1       0       0       0       0       0       0       0       0
  8130 ;;      Temps:          4       0       0       0       0       0       0       0       0
  8131 ;;      Totals:         7       0       0       0       0       0       0       0       0
  8132 ;;Total ram usage:        7 bytes
  8133 ;; Hardware stack levels used:    1
  8134 ;; This function calls:
  8135 ;;		Nothing
  8136 ;; This function is called by:
  8137 ;;		_atoi
  8138 ;; This function uses a non-reentrant model
  8139 ;;
  8140                           
  8141                           	psect	text34
  8142  003622                     __ptext34:
  8143                           	callstack 0
  8144  003622                     _isspace:
  8145                           	callstack 22
  8146  003622  0E01               	movlw	1
  8147  003624  6E07               	movwf	_isspace$1416^0,c
  8148  003626  0E20               	movlw	32
  8149  003628  1801               	xorwf	isspace@c^0,w,c
  8150  00362A  1002               	iorwf	(isspace@c+1)^0,w,c
  8151  00362C  B4D8               	btfsc	status,2,c
  8152  00362E  EF1B  F01B         	goto	i2u390_41
  8153  003632  EF1D  F01B         	goto	i2u390_40
  8154  003636                     i2u390_41:
  8155  003636  EF36  F01B         	goto	i2l3458
  8156  00363A                     i2u390_40:
  8157  00363A  0EF7               	movlw	247
  8158  00363C  6E03               	movwf	??_isspace^0,c
  8159  00363E  0EFF               	movlw	255
  8160  003640  6E04               	movwf	(??_isspace+1)^0,c
  8161  003642  C001  F005         	movff	isspace@c,??_isspace+2
  8162  003646  C002  F006         	movff	isspace@c+1,??_isspace+3
  8163  00364A  5003               	movf	??_isspace^0,w,c
  8164  00364C  2605               	addwf	(??_isspace+2)^0,f,c
  8165  00364E  5004               	movf	(??_isspace+1)^0,w,c
  8166  003650  2206               	addwfc	(??_isspace+3)^0,f,c
  8167  003652  5006               	movf	(??_isspace+3)^0,w,c
  8168  003654  E109               	bnz	i2u391_40
  8169  003656  0E05               	movlw	5
  8170  003658  5C05               	subwf	(??_isspace+2)^0,w,c
  8171  00365A  A0D8               	btfss	status,0,c
  8172  00365C  EF32  F01B         	goto	i2u391_41
  8173  003660  EF34  F01B         	goto	i2u391_40
  8174  003664                     i2u391_41:
  8175  003664  EF36  F01B         	goto	i2l3458
  8176  003668                     i2u391_40:
  8177  003668  0E00               	movlw	0
  8178  00366A  6E07               	movwf	_isspace$1416^0,c
  8179  00366C                     i2l3458:
  8180  00366C  C007  F001         	movff	_isspace$1416,?_isspace
  8181  003670  6A02               	clrf	(?_isspace+1)^0,c
  8182  003672  0012               	return		;funcret
  8183  003674                     __end_of_isspace:
  8184                           	callstack 0
  8185                           
  8186 ;; *************** function _isdigit *****************
  8187 ;; Defined at:
  8188 ;;		line 5 in file "C:\Program Files\Microchip\xc8\v2.20\pic\sources\c99\common\isdigit.c"
  8189 ;; Parameters:    Size  Location     Type
  8190 ;;  c               2    0[COMRAM] int 
  8191 ;; Auto vars:     Size  Location     Type
  8192 ;;		None
  8193 ;; Return value:  Size  Location     Type
  8194 ;;                  2    0[COMRAM] int 
  8195 ;; Registers used:
  8196 ;;		wreg, status,2, status,0
  8197 ;; Tracked objects:
  8198 ;;		On entry : 0/0
  8199 ;;		On exit  : 0/0
  8200 ;;		Unchanged: 0/0
  8201 ;; Data sizes:     COMRAM   BANK0   BANK1   BANK2   BANK3   BANK4   BANK5   BANK6   BANK7
  8202 ;;      Params:         2       0       0       0       0       0       0       0       0
  8203 ;;      Locals:         0       0       0       0       0       0       0       0       0
  8204 ;;      Temps:          4       0       0       0       0       0       0       0       0
  8205 ;;      Totals:         6       0       0       0       0       0       0       0       0
  8206 ;;Total ram usage:        6 bytes
  8207 ;; Hardware stack levels used:    1
  8208 ;; This function calls:
  8209 ;;		Nothing
  8210 ;; This function is called by:
  8211 ;;		_vfpfcnvrt
  8212 ;;		_atoi
  8213 ;; This function uses a non-reentrant model
  8214 ;;
  8215                           
  8216                           	psect	text35
  8217  00376E                     __ptext35:
  8218                           	callstack 0
  8219  00376E                     _isdigit:
  8220                           	callstack 23
  8221  00376E  0ED0               	movlw	208
  8222  003770  6E03               	movwf	??_isdigit^0,c
  8223  003772  0EFF               	movlw	255
  8224  003774  6E04               	movwf	(??_isdigit+1)^0,c
  8225  003776  C001  F005         	movff	isdigit@c,??_isdigit+2
  8226  00377A  C002  F006         	movff	isdigit@c+1,??_isdigit+3
  8227  00377E  5003               	movf	??_isdigit^0,w,c
  8228  003780  2605               	addwf	(??_isdigit+2)^0,f,c
  8229  003782  5004               	movf	(??_isdigit+1)^0,w,c
  8230  003784  2206               	addwfc	(??_isdigit+3)^0,f,c
  8231  003786  5006               	movf	(??_isdigit+3)^0,w,c
  8232  003788  E10A               	bnz	i2u388_40
  8233  00378A  0E0A               	movlw	10
  8234  00378C  5C05               	subwf	(??_isdigit+2)^0,w,c
  8235  00378E  A0D8               	btfss	status,0,c
  8236  003790  EFCC  F01B         	goto	i2u388_41
  8237  003794  EFCF  F01B         	goto	i2u388_40
  8238  003798                     i2u388_41:
  8239  003798  0E01               	movlw	1
  8240  00379A  EFD0  F01B         	goto	i2u389_40
  8241  00379E                     i2u388_40:
  8242  00379E  0E00               	movlw	0
  8243  0037A0                     i2u389_40:
  8244  0037A0  6E01               	movwf	?_isdigit^0,c
  8245  0037A2  6A02               	clrf	(?_isdigit+1)^0,c
  8246  0037A4  0012               	return		;funcret
  8247  0037A6                     __end_of_isdigit:
  8248                           	callstack 0
  8249                           
  8250 ;; *************** function ___wmul *****************
  8251 ;; Defined at:
  8252 ;;		line 15 in file "C:\Program Files\Microchip\xc8\v2.20\pic\sources\c99\common\Umul16.c"
  8253 ;; Parameters:    Size  Location     Type
  8254 ;;  multiplier      2    0[COMRAM] unsigned int 
  8255 ;;  multiplicand    2    2[COMRAM] unsigned int 
  8256 ;; Auto vars:     Size  Location     Type
  8257 ;;  product         2    4[COMRAM] unsigned int 
  8258 ;; Return value:  Size  Location     Type
  8259 ;;                  2    0[COMRAM] unsigned int 
  8260 ;; Registers used:
  8261 ;;		wreg, status,2, status,0, prodl, prodh
  8262 ;; Tracked objects:
  8263 ;;		On entry : 0/0
  8264 ;;		On exit  : 0/0
  8265 ;;		Unchanged: 0/0
  8266 ;; Data sizes:     COMRAM   BANK0   BANK1   BANK2   BANK3   BANK4   BANK5   BANK6   BANK7
  8267 ;;      Params:         4       0       0       0       0       0       0       0       0
  8268 ;;      Locals:         2       0       0       0       0       0       0       0       0
  8269 ;;      Temps:          0       0       0       0       0       0       0       0       0
  8270 ;;      Totals:         6       0       0       0       0       0       0       0       0
  8271 ;;Total ram usage:        6 bytes
  8272 ;; Hardware stack levels used:    1
  8273 ;; This function calls:
  8274 ;;		Nothing
  8275 ;; This function is called by:
  8276 ;;		_atoi
  8277 ;; This function uses a non-reentrant model
  8278 ;;
  8279                           
  8280                           	psect	text36
  8281  0038C2                     __ptext36:
  8282                           	callstack 0
  8283  0038C2                     ___wmul:
  8284                           	callstack 22
  8285  0038C2  5001               	movf	___wmul@multiplier^0,w,c
  8286  0038C4  0203               	mulwf	___wmul@multiplicand^0,c
  8287  0038C6  CFF3 F005          	movff	prodl,___wmul@product
  8288  0038CA  CFF4 F006          	movff	prodh,___wmul@product+1
  8289  0038CE  5001               	movf	___wmul@multiplier^0,w,c
  8290  0038D0  0204               	mulwf	(___wmul@multiplicand+1)^0,c
  8291  0038D2  50F3               	movf	243,w,c
  8292  0038D4  2606               	addwf	(___wmul@product+1)^0,f,c
  8293  0038D6  5002               	movf	(___wmul@multiplier+1)^0,w,c
  8294  0038D8  0203               	mulwf	___wmul@multiplicand^0,c
  8295  0038DA  50F3               	movf	243,w,c
  8296  0038DC  2606               	addwf	(___wmul@product+1)^0,f,c
  8297  0038DE  C005  F001         	movff	___wmul@product,?___wmul
  8298  0038E2  C006  F002         	movff	___wmul@product+1,?___wmul+1
  8299  0038E6  0012               	return		;funcret
  8300  0038E8                     __end_of___wmul:
  8301                           	callstack 0
  8302                           
  8303 ;; *************** function ___xxtofl *****************
  8304 ;; Defined at:
  8305 ;;		line 10 in file "C:\Program Files\Microchip\xc8\v2.20\pic\sources\c99\common\xxtofl.c"
  8306 ;; Parameters:    Size  Location     Type
  8307 ;;  sign            1    wreg     unsigned char 
  8308 ;;  val             4    0[COMRAM] long 
  8309 ;; Auto vars:     Size  Location     Type
  8310 ;;  sign            1    8[COMRAM] unsigned char 
  8311 ;;  arg             4   10[COMRAM] unsigned long 
  8312 ;;  exp             1    9[COMRAM] unsigned char 
  8313 ;; Return value:  Size  Location     Type
  8314 ;;                  4    0[COMRAM] unsigned char 
  8315 ;; Registers used:
  8316 ;;		wreg, status,2, status,0
  8317 ;; Tracked objects:
  8318 ;;		On entry : 0/0
  8319 ;;		On exit  : 0/0
  8320 ;;		Unchanged: 0/0
  8321 ;; Data sizes:     COMRAM   BANK0   BANK1   BANK2   BANK3   BANK4   BANK5   BANK6   BANK7
  8322 ;;      Params:         4       0       0       0       0       0       0       0       0
  8323 ;;      Locals:         6       0       0       0       0       0       0       0       0
  8324 ;;      Temps:          4       0       0       0       0       0       0       0       0
  8325 ;;      Totals:        14       0       0       0       0       0       0       0       0
  8326 ;;Total ram usage:       14 bytes
  8327 ;; Hardware stack levels used:    1
  8328 ;; This function calls:
  8329 ;;		Nothing
  8330 ;; This function is called by:
  8331 ;;		_ADC_ISR
  8332 ;; This function uses a non-reentrant model
  8333 ;;
  8334                           
  8335                           	psect	text37
  8336  00278E                     __ptext37:
  8337                           	callstack 0
  8338  00278E                     ___xxtofl:
  8339                           	callstack 26
  8340                           
  8341                           ;incstack = 0
  8342                           ;___xxtofl@sign stored from wreg
  8343  00278E  6E09               	movwf	___xxtofl@sign^0,c
  8344  002790  5009               	movf	___xxtofl@sign^0,w,c
  8345  002792  B4D8               	btfsc	status,2,c
  8346  002794  EFCE  F013         	goto	i2u475_41
  8347  002798  EFD0  F013         	goto	i2u475_40
  8348  00279C                     i2u475_41:
  8349  00279C  EFF2  F013         	goto	i2l785
  8350  0027A0                     i2u475_40:
  8351  0027A0  BE04               	btfsc	(___xxtofl@val+3)^0,7,c
  8352  0027A2  EFD7  F013         	goto	i2u476_40
  8353  0027A6  EFD5  F013         	goto	i2u476_41
  8354  0027AA                     i2u476_41:
  8355  0027AA  EFF2  F013         	goto	i2l785
  8356  0027AE                     i2u476_40:
  8357  0027AE  C001  F005         	movff	___xxtofl@val,??___xxtofl
  8358  0027B2  C002  F006         	movff	___xxtofl@val+1,??___xxtofl+1
  8359  0027B6  C003  F007         	movff	___xxtofl@val+2,??___xxtofl+2
  8360  0027BA  C004  F008         	movff	___xxtofl@val+3,??___xxtofl+3
  8361  0027BE  1E05               	comf	??___xxtofl^0,f,c
  8362  0027C0  1E06               	comf	(??___xxtofl+1)^0,f,c
  8363  0027C2  1E07               	comf	(??___xxtofl+2)^0,f,c
  8364  0027C4  1E08               	comf	(??___xxtofl+3)^0,f,c
  8365  0027C6  2A05               	incf	??___xxtofl^0,f,c
  8366  0027C8  0E00               	movlw	0
  8367  0027CA  2206               	addwfc	(??___xxtofl+1)^0,f,c
  8368  0027CC  2207               	addwfc	(??___xxtofl+2)^0,f,c
  8369  0027CE  2208               	addwfc	(??___xxtofl+3)^0,f,c
  8370  0027D0  C005  F00B         	movff	??___xxtofl,___xxtofl@arg
  8371  0027D4  C006  F00C         	movff	??___xxtofl+1,___xxtofl@arg+1
  8372  0027D8  C007  F00D         	movff	??___xxtofl+2,___xxtofl@arg+2
  8373  0027DC  C008  F00E         	movff	??___xxtofl+3,___xxtofl@arg+3
  8374  0027E0  EFFA  F013         	goto	i2l4100
  8375  0027E4                     i2l785:
  8376  0027E4  C001  F00B         	movff	___xxtofl@val,___xxtofl@arg
  8377  0027E8  C002  F00C         	movff	___xxtofl@val+1,___xxtofl@arg+1
  8378  0027EC  C003  F00D         	movff	___xxtofl@val+2,___xxtofl@arg+2
  8379  0027F0  C004  F00E         	movff	___xxtofl@val+3,___xxtofl@arg+3
  8380  0027F4                     i2l4100:
  8381  0027F4  5001               	movf	___xxtofl@val^0,w,c
  8382  0027F6  1002               	iorwf	(___xxtofl@val+1)^0,w,c
  8383  0027F8  1003               	iorwf	(___xxtofl@val+2)^0,w,c
  8384  0027FA  1004               	iorwf	(___xxtofl@val+3)^0,w,c
  8385  0027FC  A4D8               	btfss	status,2,c
  8386  0027FE  EF03  F014         	goto	i2u477_41
  8387  002802  EF05  F014         	goto	i2u477_40
  8388  002806                     i2u477_41:
  8389  002806  EF0F  F014         	goto	i2l4106
  8390  00280A                     i2u477_40:
  8391  00280A  0E00               	movlw	0
  8392  00280C  6E01               	movwf	?___xxtofl^0,c
  8393  00280E  0E00               	movlw	0
  8394  002810  6E02               	movwf	(?___xxtofl+1)^0,c
  8395  002812  0E00               	movlw	0
  8396  002814  6E03               	movwf	(?___xxtofl+2)^0,c
  8397  002816  0E00               	movlw	0
  8398  002818  6E04               	movwf	(?___xxtofl+3)^0,c
  8399  00281A  EFA0  F014         	goto	i2l788
  8400  00281E                     i2l4106:
  8401  00281E  0E96               	movlw	150
  8402  002820  6E0A               	movwf	___xxtofl@exp^0,c
  8403  002822  EF19  F014         	goto	i2l4110
  8404  002826                     i2l4108:
  8405  002826  2A0A               	incf	___xxtofl@exp^0,f,c
  8406  002828  90D8               	bcf	status,0,c
  8407  00282A  320E               	rrcf	(___xxtofl@arg+3)^0,f,c
  8408  00282C  320D               	rrcf	(___xxtofl@arg+2)^0,f,c
  8409  00282E  320C               	rrcf	(___xxtofl@arg+1)^0,f,c
  8410  002830  320B               	rrcf	___xxtofl@arg^0,f,c
  8411  002832                     i2l4110:
  8412  002832  0E00               	movlw	0
  8413  002834  140B               	andwf	___xxtofl@arg^0,w,c
  8414  002836  6E05               	movwf	??___xxtofl^0,c
  8415  002838  0E00               	movlw	0
  8416  00283A  140C               	andwf	(___xxtofl@arg+1)^0,w,c
  8417  00283C  6E06               	movwf	(??___xxtofl+1)^0,c
  8418  00283E  0E00               	movlw	0
  8419  002840  140D               	andwf	(___xxtofl@arg+2)^0,w,c
  8420  002842  6E07               	movwf	(??___xxtofl+2)^0,c
  8421  002844  0EFE               	movlw	254
  8422  002846  140E               	andwf	(___xxtofl@arg+3)^0,w,c
  8423  002848  6E08               	movwf	(??___xxtofl+3)^0,c
  8424  00284A  5005               	movf	??___xxtofl^0,w,c
  8425  00284C  1006               	iorwf	(??___xxtofl+1)^0,w,c
  8426  00284E  1007               	iorwf	(??___xxtofl+2)^0,w,c
  8427  002850  1008               	iorwf	(??___xxtofl+3)^0,w,c
  8428  002852  A4D8               	btfss	status,2,c
  8429  002854  EF2E  F014         	goto	i2u478_41
  8430  002858  EF30  F014         	goto	i2u478_40
  8431  00285C                     i2u478_41:
  8432  00285C  EF13  F014         	goto	i2l4108
  8433  002860                     i2u478_40:
  8434  002860  EF3E  F014         	goto	i2l792
  8435  002864                     i2l4112:
  8436  002864  2A0A               	incf	___xxtofl@exp^0,f,c
  8437  002866  0E01               	movlw	1
  8438  002868  260B               	addwf	___xxtofl@arg^0,f,c
  8439  00286A  0E00               	movlw	0
  8440  00286C  220C               	addwfc	(___xxtofl@arg+1)^0,f,c
  8441  00286E  220D               	addwfc	(___xxtofl@arg+2)^0,f,c
  8442  002870  220E               	addwfc	(___xxtofl@arg+3)^0,f,c
  8443  002872  90D8               	bcf	status,0,c
  8444  002874  320E               	rrcf	(___xxtofl@arg+3)^0,f,c
  8445  002876  320D               	rrcf	(___xxtofl@arg+2)^0,f,c
  8446  002878  320C               	rrcf	(___xxtofl@arg+1)^0,f,c
  8447  00287A  320B               	rrcf	___xxtofl@arg^0,f,c
  8448  00287C                     i2l792:
  8449  00287C  0E00               	movlw	0
  8450  00287E  140B               	andwf	___xxtofl@arg^0,w,c
  8451  002880  6E05               	movwf	??___xxtofl^0,c
  8452  002882  0E00               	movlw	0
  8453  002884  140C               	andwf	(___xxtofl@arg+1)^0,w,c
  8454  002886  6E06               	movwf	(??___xxtofl+1)^0,c
  8455  002888  0E00               	movlw	0
  8456  00288A  140D               	andwf	(___xxtofl@arg+2)^0,w,c
  8457  00288C  6E07               	movwf	(??___xxtofl+2)^0,c
  8458  00288E  0EFF               	movlw	255
  8459  002890  140E               	andwf	(___xxtofl@arg+3)^0,w,c
  8460  002892  6E08               	movwf	(??___xxtofl+3)^0,c
  8461  002894  5005               	movf	??___xxtofl^0,w,c
  8462  002896  1006               	iorwf	(??___xxtofl+1)^0,w,c
  8463  002898  1007               	iorwf	(??___xxtofl+2)^0,w,c
  8464  00289A  1008               	iorwf	(??___xxtofl+3)^0,w,c
  8465  00289C  A4D8               	btfss	status,2,c
  8466  00289E  EF53  F014         	goto	i2u479_41
  8467  0028A2  EF55  F014         	goto	i2u479_40
  8468  0028A6                     i2u479_41:
  8469  0028A6  EF32  F014         	goto	i2l4112
  8470  0028AA                     i2u479_40:
  8471  0028AA  EF5D  F014         	goto	i2l4120
  8472  0028AE                     i2l4118:
  8473  0028AE  060A               	decf	___xxtofl@exp^0,f,c
  8474  0028B0  90D8               	bcf	status,0,c
  8475  0028B2  360B               	rlcf	___xxtofl@arg^0,f,c
  8476  0028B4  360C               	rlcf	(___xxtofl@arg+1)^0,f,c
  8477  0028B6  360D               	rlcf	(___xxtofl@arg+2)^0,f,c
  8478  0028B8  360E               	rlcf	(___xxtofl@arg+3)^0,f,c
  8479  0028BA                     i2l4120:
  8480  0028BA  BE0D               	btfsc	(___xxtofl@arg+2)^0,7,c
  8481  0028BC  EF62  F014         	goto	i2u480_41
  8482  0028C0  EF64  F014         	goto	i2u480_40
  8483  0028C4                     i2u480_41:
  8484  0028C4  EF6C  F014         	goto	i2l799
  8485  0028C8                     i2u480_40:
  8486  0028C8  0E02               	movlw	2
  8487  0028CA  600A               	cpfslt	___xxtofl@exp^0,c
  8488  0028CC  EF6A  F014         	goto	i2u481_41
  8489  0028D0  EF6C  F014         	goto	i2u481_40
  8490  0028D4                     i2u481_41:
  8491  0028D4  EF57  F014         	goto	i2l4118
  8492  0028D8                     i2u481_40:
  8493  0028D8                     i2l799:
  8494  0028D8  B00A               	btfsc	___xxtofl@exp^0,0,c
  8495  0028DA  EF71  F014         	goto	i2u482_41
  8496  0028DE  EF73  F014         	goto	i2u482_40
  8497  0028E2                     i2u482_41:
  8498  0028E2  EF74  F014         	goto	i2l4126
  8499  0028E6                     i2u482_40:
  8500  0028E6  9E0D               	bcf	(___xxtofl@arg+2)^0,7,c
  8501  0028E8                     i2l4126:
  8502  0028E8  90D8               	bcf	status,0,c
  8503  0028EA  320A               	rrcf	___xxtofl@exp^0,f,c
  8504  0028EC  C00A  F005         	movff	___xxtofl@exp,??___xxtofl
  8505  0028F0  6A06               	clrf	(??___xxtofl+1)^0,c
  8506  0028F2  6A07               	clrf	(??___xxtofl+2)^0,c
  8507  0028F4  6A08               	clrf	(??___xxtofl+3)^0,c
  8508  0028F6  C005  F008         	movff	??___xxtofl,??___xxtofl+3
  8509  0028FA  6A07               	clrf	(??___xxtofl+2)^0,c
  8510  0028FC  6A06               	clrf	(??___xxtofl+1)^0,c
  8511  0028FE  6A05               	clrf	??___xxtofl^0,c
  8512  002900  5005               	movf	??___xxtofl^0,w,c
  8513  002902  120B               	iorwf	___xxtofl@arg^0,f,c
  8514  002904  5006               	movf	(??___xxtofl+1)^0,w,c
  8515  002906  120C               	iorwf	(___xxtofl@arg+1)^0,f,c
  8516  002908  5007               	movf	(??___xxtofl+2)^0,w,c
  8517  00290A  120D               	iorwf	(___xxtofl@arg+2)^0,f,c
  8518  00290C  5008               	movf	(??___xxtofl+3)^0,w,c
  8519  00290E  120E               	iorwf	(___xxtofl@arg+3)^0,f,c
  8520  002910  5009               	movf	___xxtofl@sign^0,w,c
  8521  002912  B4D8               	btfsc	status,2,c
  8522  002914  EF8E  F014         	goto	i2u483_41
  8523  002918  EF90  F014         	goto	i2u483_40
  8524  00291C                     i2u483_41:
  8525  00291C  EF98  F014         	goto	i2l4136
  8526  002920                     i2u483_40:
  8527  002920  BE04               	btfsc	(___xxtofl@val+3)^0,7,c
  8528  002922  EF97  F014         	goto	i2u484_40
  8529  002926  EF95  F014         	goto	i2u484_41
  8530  00292A                     i2u484_41:
  8531  00292A  EF98  F014         	goto	i2l4136
  8532  00292E                     i2u484_40:
  8533  00292E  8E0E               	bsf	(___xxtofl@arg+3)^0,7,c
  8534  002930                     i2l4136:
  8535  002930  C00B  F001         	movff	___xxtofl@arg,?___xxtofl
  8536  002934  C00C  F002         	movff	___xxtofl@arg+1,?___xxtofl+1
  8537  002938  C00D  F003         	movff	___xxtofl@arg+2,?___xxtofl+2
  8538  00293C  C00E  F004         	movff	___xxtofl@arg+3,?___xxtofl+3
  8539  002940                     i2l788:
  8540  002940  0012               	return		;funcret
  8541  002942                     __end_of___xxtofl:
  8542                           	callstack 0
  8543                           
  8544 ;; *************** function _LCD_XY *****************
  8545 ;; Defined at:
  8546 ;;		line 92 in file "LCD_4bits.c"
  8547 ;; Parameters:    Size  Location     Type
  8548 ;;  x               2    2[COMRAM] int 
  8549 ;;  y               2    4[COMRAM] int 
  8550 ;; Auto vars:     Size  Location     Type
  8551 ;;		None
  8552 ;; Return value:  Size  Location     Type
  8553 ;;                  1    wreg      void 
  8554 ;; Registers used:
  8555 ;;		wreg, status,2, status,0, cstack
  8556 ;; Tracked objects:
  8557 ;;		On entry : 0/0
  8558 ;;		On exit  : 0/0
  8559 ;;		Unchanged: 0/0
  8560 ;; Data sizes:     COMRAM   BANK0   BANK1   BANK2   BANK3   BANK4   BANK5   BANK6   BANK7
  8561 ;;      Params:         4       0       0       0       0       0       0       0       0
  8562 ;;      Locals:         0       0       0       0       0       0       0       0       0
  8563 ;;      Temps:          0       0       0       0       0       0       0       0       0
  8564 ;;      Totals:         4       0       0       0       0       0       0       0       0
  8565 ;;Total ram usage:        4 bytes
  8566 ;; Hardware stack levels used:    1
  8567 ;; Hardware stack levels required when called:    1
  8568 ;; This function calls:
  8569 ;;		i2_LCD_Comando
  8570 ;; This function is called by:
  8571 ;;		_ADC_ISR
  8572 ;; This function uses a non-reentrant model
  8573 ;;
  8574                           
  8575                           	psect	text38
  8576  00380C                     __ptext38:
  8577                           	callstack 0
  8578  00380C                     _LCD_XY:
  8579                           	callstack 25
  8580  00380C                     
  8581                           ;LCD_4bits.c: 93:     if(x>0){
  8582  00380C  BE04               	btfsc	(LCD_XY@x+1)^0,7,c
  8583  00380E  EF11  F01C         	goto	i2u473_41
  8584  003812  5004               	movf	(LCD_XY@x+1)^0,w,c
  8585  003814  E108               	bnz	i2u473_40
  8586  003816  0403               	decf	LCD_XY@x^0,w,c
  8587  003818  A0D8               	btfss	status,0,c
  8588  00381A  EF11  F01C         	goto	i2u473_41
  8589  00381E  EF13  F01C         	goto	i2u473_40
  8590  003822                     i2u473_41:
  8591  003822  EF19  F01C         	goto	i2l4056
  8592  003826                     i2u473_40:
  8593  003826                     
  8594                           ;LCD_4bits.c: 94:         LCD_Comando(0xC0+y);
  8595  003826  5005               	movf	LCD_XY@y^0,w,c
  8596  003828  0FC0               	addlw	192
  8597  00382A  ECED  F019         	call	i2_LCD_Comando
  8598                           
  8599                           ;LCD_4bits.c: 95:     }
  8600  00382E  EF1D  F01C         	goto	i2l94
  8601  003832                     i2l4056:
  8602                           
  8603                           ;LCD_4bits.c: 97:         LCD_Comando(0x80+y);
  8604  003832  5005               	movf	LCD_XY@y^0,w,c
  8605  003834  0F80               	addlw	128
  8606  003836  ECED  F019         	call	i2_LCD_Comando
  8607  00383A                     i2l94:
  8608  00383A  0012               	return		;funcret
  8609  00383C                     __end_of_LCD_XY:
  8610                           	callstack 0
  8611                           
  8612 ;; *************** function i2_LCD_Comando *****************
  8613 ;; Defined at:
  8614 ;;		line 20 in file "LCD_4bits.c"
  8615 ;; Parameters:    Size  Location     Type
  8616 ;;  cmd             1    wreg     unsigned char 
  8617 ;; Auto vars:     Size  Location     Type
  8618 ;;  cmd             1    1[COMRAM] unsigned char 
  8619 ;; Return value:  Size  Location     Type
  8620 ;;                  1    wreg      void 
  8621 ;; Registers used:
  8622 ;;		wreg, status,2, status,0
  8623 ;; Tracked objects:
  8624 ;;		On entry : 0/0
  8625 ;;		On exit  : 0/0
  8626 ;;		Unchanged: 0/0
  8627 ;; Data sizes:     COMRAM   BANK0   BANK1   BANK2   BANK3   BANK4   BANK5   BANK6   BANK7
  8628 ;;      Params:         0       0       0       0       0       0       0       0       0
  8629 ;;      Locals:         1       0       0       0       0       0       0       0       0
  8630 ;;      Temps:          1       0       0       0       0       0       0       0       0
  8631 ;;      Totals:         2       0       0       0       0       0       0       0       0
  8632 ;;Total ram usage:        2 bytes
  8633 ;; Hardware stack levels used:    1
  8634 ;; This function calls:
  8635 ;;		Nothing
  8636 ;; This function is called by:
  8637 ;;		_LCD_XY
  8638 ;; This function uses a non-reentrant model
  8639 ;;
  8640                           
  8641                           	psect	text39
  8642  0033DA                     __ptext39:
  8643                           	callstack 0
  8644  0033DA                     i2_LCD_Comando:
  8645                           	callstack 25
  8646                           
  8647                           ;incstack = 0
  8648                           ;i2LCD_Comando@cmd stored from wreg
  8649  0033DA  6E02               	movwf	i2LCD_Comando@cmd^0,c
  8650  0033DC                     
  8651                           ;LCD_4bits.c: 22:     LATD = LATD & 0x0F;
  8652  0033DC  508C               	movf	140,w,c	;volatile
  8653  0033DE  0B0F               	andlw	15
  8654  0033E0  6E8C               	movwf	140,c	;volatile
  8655                           
  8656                           ;LCD_4bits.c: 28:     LATD = LATD | (cmd & 0xF0);
  8657  0033E2  5002               	movf	i2LCD_Comando@cmd^0,w,c
  8658  0033E4  0BF0               	andlw	240
  8659  0033E6  108C               	iorwf	140,w,c	;volatile
  8660  0033E8  6E8C               	movwf	140,c	;volatile
  8661  0033EA                     
  8662                           ;LCD_4bits.c: 37:     LATDbits.LATD2 = 0;
  8663  0033EA  948C               	bcf	140,2,c	;volatile
  8664  0033EC                     
  8665                           ;LCD_4bits.c: 38:     _delay((unsigned long)((1)*(20000000UL/4000.0)));
  8666  0033EC  0E07               	movlw	7
  8667  0033EE  6E01               	movwf	??i2_LCD_Comando^0,c
  8668  0033F0  0E7D               	movlw	125
  8669  0033F2                     i2u492_47:
  8670  0033F2  2EE8               	decfsz	wreg,f,c
  8671  0033F4  D7FE               	bra	i2u492_47
  8672  0033F6  2E01               	decfsz	??i2_LCD_Comando^0,f,c
  8673  0033F8  D7FC               	bra	i2u492_47
  8674  0033FA  F000               	nop	
  8675  0033FC                     
  8676                           ;LCD_4bits.c: 39:     LATDbits.LATD3 = 1;
  8677  0033FC  868C               	bsf	140,3,c	;volatile
  8678  0033FE                     
  8679                           ;LCD_4bits.c: 40:     _delay((unsigned long)((1)*(20000000UL/4000.0)));
  8680  0033FE  0E07               	movlw	7
  8681  003400  6E01               	movwf	??i2_LCD_Comando^0,c
  8682  003402  0E7D               	movlw	125
  8683  003404                     i2u493_47:
  8684  003404  2EE8               	decfsz	wreg,f,c
  8685  003406  D7FE               	bra	i2u493_47
  8686  003408  2E01               	decfsz	??i2_LCD_Comando^0,f,c
  8687  00340A  D7FC               	bra	i2u493_47
  8688  00340C  F000               	nop	
  8689  00340E                     
  8690                           ;LCD_4bits.c: 41:     LATDbits.LATD3 = 0;
  8691  00340E  968C               	bcf	140,3,c	;volatile
  8692                           
  8693                           ;LCD_4bits.c: 43:     LATD &= 0x0F;
  8694  003410  0E0F               	movlw	15
  8695  003412  168C               	andwf	140,f,c	;volatile
  8696                           
  8697                           ;LCD_4bits.c: 49:     LATD |= ((cmd<<4) & 0xF0);
  8698  003414  3802               	swapf	i2LCD_Comando@cmd^0,w,c
  8699  003416  0BF0               	andlw	240
  8700  003418  0BF0               	andlw	240
  8701  00341A  128C               	iorwf	140,f,c	;volatile
  8702  00341C                     
  8703                           ;LCD_4bits.c: 58:     LATDbits.LATD2 = 0;
  8704  00341C  948C               	bcf	140,2,c	;volatile
  8705  00341E                     
  8706                           ;LCD_4bits.c: 59:     _delay((unsigned long)((1)*(20000000UL/4000.0)));
  8707  00341E  0E07               	movlw	7
  8708  003420  6E01               	movwf	??i2_LCD_Comando^0,c
  8709  003422  0E7D               	movlw	125
  8710  003424                     i2u494_47:
  8711  003424  2EE8               	decfsz	wreg,f,c
  8712  003426  D7FE               	bra	i2u494_47
  8713  003428  2E01               	decfsz	??i2_LCD_Comando^0,f,c
  8714  00342A  D7FC               	bra	i2u494_47
  8715  00342C  F000               	nop	
  8716  00342E                     
  8717                           ;LCD_4bits.c: 60:     LATDbits.LATD3 = 1;
  8718  00342E  868C               	bsf	140,3,c	;volatile
  8719  003430                     
  8720                           ;LCD_4bits.c: 61:     _delay((unsigned long)((1)*(20000000UL/4000.0)));
  8721  003430  0E07               	movlw	7
  8722  003432  6E01               	movwf	??i2_LCD_Comando^0,c
  8723  003434  0E7D               	movlw	125
  8724  003436                     i2u495_47:
  8725  003436  2EE8               	decfsz	wreg,f,c
  8726  003438  D7FE               	bra	i2u495_47
  8727  00343A  2E01               	decfsz	??i2_LCD_Comando^0,f,c
  8728  00343C  D7FC               	bra	i2u495_47
  8729  00343E  F000               	nop	
  8730  003440                     
  8731                           ;LCD_4bits.c: 62:     LATDbits.LATD3 = 0;
  8732  003440  968C               	bcf	140,3,c	;volatile
  8733                           
  8734                           ;LCD_4bits.c: 64:     LATD &= 0x0F;
  8735  003442  0E0F               	movlw	15
  8736  003444  168C               	andwf	140,f,c	;volatile
  8737  003446  0012               	return		;funcret
  8738  003448                     __end_ofi2_LCD_Comando:
  8739                           	callstack 0
  8740                           
  8741 ;; *************** function _LCD_Cadena *****************
  8742 ;; Defined at:
  8743 ;;		line 101 in file "LCD_4bits.c"
  8744 ;; Parameters:    Size  Location     Type
  8745 ;;  dat             2    2[COMRAM] PTR unsigned char 
  8746 ;;		 -> datos(10), 
  8747 ;; Auto vars:     Size  Location     Type
  8748 ;;		None
  8749 ;; Return value:  Size  Location     Type
  8750 ;;                  1    wreg      void 
  8751 ;; Registers used:
  8752 ;;		wreg, fsr2l, fsr2h, status,2, status,0, cstack
  8753 ;; Tracked objects:
  8754 ;;		On entry : 0/0
  8755 ;;		On exit  : 0/0
  8756 ;;		Unchanged: 0/0
  8757 ;; Data sizes:     COMRAM   BANK0   BANK1   BANK2   BANK3   BANK4   BANK5   BANK6   BANK7
  8758 ;;      Params:         2       0       0       0       0       0       0       0       0
  8759 ;;      Locals:         0       0       0       0       0       0       0       0       0
  8760 ;;      Temps:          0       0       0       0       0       0       0       0       0
  8761 ;;      Totals:         2       0       0       0       0       0       0       0       0
  8762 ;;Total ram usage:        2 bytes
  8763 ;; Hardware stack levels used:    1
  8764 ;; Hardware stack levels required when called:    1
  8765 ;; This function calls:
  8766 ;;		_LCD_Caracter
  8767 ;; This function is called by:
  8768 ;;		_ADC_ISR
  8769 ;; This function uses a non-reentrant model
  8770 ;;
  8771                           
  8772                           	psect	text40
  8773  00383C                     __ptext40:
  8774                           	callstack 0
  8775  00383C                     _LCD_Cadena:
  8776                           	callstack 25
  8777  00383C                     
  8778                           ;LCD_4bits.c: 102:     while(*dat != '\0'){
  8779  00383C  EF29  F01C         	goto	i2l4064
  8780  003840                     i2l4060:
  8781                           
  8782                           ;LCD_4bits.c: 103:         LCD_Caracter(*dat);
  8783  003840  C003  FFD9         	movff	LCD_Cadena@dat,fsr2l
  8784  003844  C004  FFDA         	movff	LCD_Cadena@dat+1,fsr2h
  8785  003848  50DF               	movf	indf2,w,c
  8786  00384A  EC24  F01A         	call	_LCD_Caracter
  8787  00384E                     
  8788                           ;LCD_4bits.c: 104:         dat++;
  8789  00384E  4A03               	infsnz	LCD_Cadena@dat^0,f,c
  8790  003850  2A04               	incf	(LCD_Cadena@dat+1)^0,f,c
  8791  003852                     i2l4064:
  8792                           
  8793                           ;LCD_4bits.c: 102:     while(*dat != '\0'){
  8794  003852  C003  FFD9         	movff	LCD_Cadena@dat,fsr2l
  8795  003856  C004  FFDA         	movff	LCD_Cadena@dat+1,fsr2h
  8796  00385A  50DF               	movf	indf2,w,c
  8797  00385C  A4D8               	btfss	status,2,c
  8798  00385E  EF33  F01C         	goto	i2u474_41
  8799  003862  EF35  F01C         	goto	i2u474_40
  8800  003866                     i2u474_41:
  8801  003866  EF20  F01C         	goto	i2l4060
  8802  00386A                     i2u474_40:
  8803  00386A  0012               	return		;funcret
  8804  00386C                     __end_of_LCD_Cadena:
  8805                           	callstack 0
  8806                           
  8807 ;; *************** function _LCD_Caracter *****************
  8808 ;; Defined at:
  8809 ;;		line 67 in file "LCD_4bits.c"
  8810 ;; Parameters:    Size  Location     Type
  8811 ;;  data            1    wreg     unsigned char 
  8812 ;; Auto vars:     Size  Location     Type
  8813 ;;  data            1    1[COMRAM] unsigned char 
  8814 ;; Return value:  Size  Location     Type
  8815 ;;                  1    wreg      void 
  8816 ;; Registers used:
  8817 ;;		wreg, status,2, status,0
  8818 ;; Tracked objects:
  8819 ;;		On entry : 0/0
  8820 ;;		On exit  : 0/0
  8821 ;;		Unchanged: 0/0
  8822 ;; Data sizes:     COMRAM   BANK0   BANK1   BANK2   BANK3   BANK4   BANK5   BANK6   BANK7
  8823 ;;      Params:         0       0       0       0       0       0       0       0       0
  8824 ;;      Locals:         1       0       0       0       0       0       0       0       0
  8825 ;;      Temps:          1       0       0       0       0       0       0       0       0
  8826 ;;      Totals:         2       0       0       0       0       0       0       0       0
  8827 ;;Total ram usage:        2 bytes
  8828 ;; Hardware stack levels used:    1
  8829 ;; This function calls:
  8830 ;;		Nothing
  8831 ;; This function is called by:
  8832 ;;		_LCD_Cadena
  8833 ;; This function uses a non-reentrant model
  8834 ;;
  8835                           
  8836                           	psect	text41
  8837  003448                     __ptext41:
  8838                           	callstack 0
  8839  003448                     _LCD_Caracter:
  8840                           	callstack 25
  8841                           
  8842                           ;incstack = 0
  8843                           ;LCD_Caracter@data stored from wreg
  8844  003448  6E02               	movwf	LCD_Caracter@data^0,c
  8845  00344A                     
  8846                           ;LCD_4bits.c: 69:     LATD &= 0x0F;
  8847  00344A  0E0F               	movlw	15
  8848  00344C  168C               	andwf	140,f,c	;volatile
  8849                           
  8850                           ;LCD_4bits.c: 71:     LATD |= (data & 0xF0);
  8851  00344E  5002               	movf	LCD_Caracter@data^0,w,c
  8852  003450  0BF0               	andlw	240
  8853  003452  128C               	iorwf	140,f,c	;volatile
  8854  003454                     
  8855                           ;LCD_4bits.c: 73:     LATDbits.LATD2 = 1;
  8856  003454  848C               	bsf	140,2,c	;volatile
  8857  003456                     
  8858                           ;LCD_4bits.c: 74:     _delay((unsigned long)((1)*(20000000UL/4000.0)));
  8859  003456  0E07               	movlw	7
  8860  003458  6E01               	movwf	??_LCD_Caracter^0,c
  8861  00345A  0E7D               	movlw	125
  8862  00345C                     i2u496_47:
  8863  00345C  2EE8               	decfsz	wreg,f,c
  8864  00345E  D7FE               	bra	i2u496_47
  8865  003460  2E01               	decfsz	??_LCD_Caracter^0,f,c
  8866  003462  D7FC               	bra	i2u496_47
  8867  003464  F000               	nop	
  8868  003466                     
  8869                           ;LCD_4bits.c: 75:     LATDbits.LATD3 = 1;
  8870  003466  868C               	bsf	140,3,c	;volatile
  8871  003468                     
  8872                           ;LCD_4bits.c: 76:     _delay((unsigned long)((1)*(20000000UL/4000.0)));
  8873  003468  0E07               	movlw	7
  8874  00346A  6E01               	movwf	??_LCD_Caracter^0,c
  8875  00346C  0E7D               	movlw	125
  8876  00346E                     i2u497_47:
  8877  00346E  2EE8               	decfsz	wreg,f,c
  8878  003470  D7FE               	bra	i2u497_47
  8879  003472  2E01               	decfsz	??_LCD_Caracter^0,f,c
  8880  003474  D7FC               	bra	i2u497_47
  8881  003476  F000               	nop	
  8882  003478                     
  8883                           ;LCD_4bits.c: 77:     LATDbits.LATD3 = 0;
  8884  003478  968C               	bcf	140,3,c	;volatile
  8885                           
  8886                           ;LCD_4bits.c: 79:     LATD &= 0x0F;
  8887  00347A  0E0F               	movlw	15
  8888  00347C  168C               	andwf	140,f,c	;volatile
  8889                           
  8890                           ;LCD_4bits.c: 81:     LATD |= ((data<<4) & 0xF0);
  8891  00347E  3802               	swapf	LCD_Caracter@data^0,w,c
  8892  003480  0BF0               	andlw	240
  8893  003482  0BF0               	andlw	240
  8894  003484  128C               	iorwf	140,f,c	;volatile
  8895  003486                     
  8896                           ;LCD_4bits.c: 83:     LATDbits.LATD2 = 1;
  8897  003486  848C               	bsf	140,2,c	;volatile
  8898  003488                     
  8899                           ;LCD_4bits.c: 84:     _delay((unsigned long)((1)*(20000000UL/4000.0)));
  8900  003488  0E07               	movlw	7
  8901  00348A  6E01               	movwf	??_LCD_Caracter^0,c
  8902  00348C  0E7D               	movlw	125
  8903  00348E                     i2u498_47:
  8904  00348E  2EE8               	decfsz	wreg,f,c
  8905  003490  D7FE               	bra	i2u498_47
  8906  003492  2E01               	decfsz	??_LCD_Caracter^0,f,c
  8907  003494  D7FC               	bra	i2u498_47
  8908  003496  F000               	nop	
  8909  003498                     
  8910                           ;LCD_4bits.c: 85:     LATDbits.LATD3 = 1;
  8911  003498  868C               	bsf	140,3,c	;volatile
  8912  00349A                     
  8913                           ;LCD_4bits.c: 86:     _delay((unsigned long)((1)*(20000000UL/4000.0)));
  8914  00349A  0E07               	movlw	7
  8915  00349C  6E01               	movwf	??_LCD_Caracter^0,c
  8916  00349E  0E7D               	movlw	125
  8917  0034A0                     i2u499_47:
  8918  0034A0  2EE8               	decfsz	wreg,f,c
  8919  0034A2  D7FE               	bra	i2u499_47
  8920  0034A4  2E01               	decfsz	??_LCD_Caracter^0,f,c
  8921  0034A6  D7FC               	bra	i2u499_47
  8922  0034A8  F000               	nop	
  8923  0034AA                     
  8924                           ;LCD_4bits.c: 87:     LATDbits.LATD3 = 0;
  8925  0034AA  968C               	bcf	140,3,c	;volatile
  8926                           
  8927                           ;LCD_4bits.c: 89:     LATD &= 0x0F;
  8928  0034AC  0E0F               	movlw	15
  8929  0034AE  168C               	andwf	140,f,c	;volatile
  8930  0034B0  0012               	return		;funcret
  8931  0034B2                     __end_of_LCD_Caracter:
  8932                           	callstack 0
  8933                           
  8934                           	psect	rparam
  8935  0000                     
  8936                           	psect	temp
  8937  00005F                     btemp:
  8938                           	callstack 0
  8939  00005F                     	ds	1
  8940  0000                     int$flags	set	btemp
  8941  0000                     wtemp8	set	btemp+1
  8942  0000                     ttemp5	set	btemp+1
  8943  0000                     ttemp6	set	btemp+4
  8944  0000                     ttemp7	set	btemp+8
  8945                           
  8946                           	psect	idloc
  8947                           
  8948                           ;Config register IDLOC0 @ 0x200000
  8949                           ;	unspecified, using default values
  8950  200000                     	org	2097152
  8951  200000  FF                 	db	255
  8952                           
  8953                           ;Config register IDLOC1 @ 0x200001
  8954                           ;	unspecified, using default values
  8955  200001                     	org	2097153
  8956  200001  FF                 	db	255
  8957                           
  8958                           ;Config register IDLOC2 @ 0x200002
  8959                           ;	unspecified, using default values
  8960  200002                     	org	2097154
  8961  200002  FF                 	db	255
  8962                           
  8963                           ;Config register IDLOC3 @ 0x200003
  8964                           ;	unspecified, using default values
  8965  200003                     	org	2097155
  8966  200003  FF                 	db	255
  8967                           
  8968                           ;Config register IDLOC4 @ 0x200004
  8969                           ;	unspecified, using default values
  8970  200004                     	org	2097156
  8971  200004  FF                 	db	255
  8972                           
  8973                           ;Config register IDLOC5 @ 0x200005
  8974                           ;	unspecified, using default values
  8975  200005                     	org	2097157
  8976  200005  FF                 	db	255
  8977                           
  8978                           ;Config register IDLOC6 @ 0x200006
  8979                           ;	unspecified, using default values
  8980  200006                     	org	2097158
  8981  200006  FF                 	db	255
  8982                           
  8983                           ;Config register IDLOC7 @ 0x200007
  8984                           ;	unspecified, using default values
  8985  200007                     	org	2097159
  8986  200007  FF                 	db	255
  8987                           
  8988                           	psect	config
  8989                           
  8990                           ;Config register CONFIG1L @ 0x300000
  8991                           ;	PLL Prescaler Selection bits
  8992                           ;	PLLDIV = 1, No prescale (4 MHz oscillator input drives PLL directly)
  8993                           ;	System Clock Postscaler Selection bits
  8994                           ;	CPUDIV = OSC1_PLL2, [Primary Oscillator Src: /1][96 MHz PLL Src: /2]
  8995                           ;	USB Clock Selection bit (used in Full-Speed USB mode only; UCFG:FSEN = 1)
  8996                           ;	USBDIV = 1, USB clock source comes directly from the primary oscillator block with no 
      +                          postscale
  8997  300000                     	org	3145728
  8998  300000  00                 	db	0
  8999                           
  9000                           ;Config register CONFIG1H @ 0x300001
  9001                           ;	Oscillator Selection bits
  9002                           ;	FOSC = HS, HS oscillator (HS)
  9003                           ;	Fail-Safe Clock Monitor Enable bit
  9004                           ;	FCMEN = OFF, Fail-Safe Clock Monitor disabled
  9005                           ;	Internal/External Oscillator Switchover bit
  9006                           ;	IESO = OFF, Oscillator Switchover mode disabled
  9007  300001                     	org	3145729
  9008  300001  0C                 	db	12
  9009                           
  9010                           ;Config register CONFIG2L @ 0x300002
  9011                           ;	Power-up Timer Enable bit
  9012                           ;	PWRT = ON, PWRT enabled
  9013                           ;	Brown-out Reset Enable bits
  9014                           ;	BOR = OFF, Brown-out Reset disabled in hardware and software
  9015                           ;	Brown-out Reset Voltage bits
  9016                           ;	BORV = 3, Minimum setting 2.05V
  9017                           ;	USB Voltage Regulator Enable bit
  9018                           ;	VREGEN = OFF, USB voltage regulator disabled
  9019  300002                     	org	3145730
  9020  300002  18                 	db	24
  9021                           
  9022                           ;Config register CONFIG2H @ 0x300003
  9023                           ;	Watchdog Timer Enable bit
  9024                           ;	WDT = OFF, WDT disabled (control is placed on the SWDTEN bit)
  9025                           ;	Watchdog Timer Postscale Select bits
  9026                           ;	WDTPS = 32768, 1:32768
  9027  300003                     	org	3145731
  9028  300003  1E                 	db	30
  9029                           
  9030                           ; Padding undefined space
  9031  300004                     	org	3145732
  9032  300004  FF                 	db	255
  9033                           
  9034                           ;Config register CONFIG3H @ 0x300005
  9035                           ;	CCP2 MUX bit
  9036                           ;	CCP2MX = ON, CCP2 input/output is multiplexed with RC1
  9037                           ;	PORTB A/D Enable bit
  9038                           ;	PBADEN = OFF, PORTB<4:0> pins are configured as digital I/O on Reset
  9039                           ;	Low-Power Timer 1 Oscillator Enable bit
  9040                           ;	LPT1OSC = OFF, Timer1 configured for higher power operation
  9041                           ;	MCLR Pin Enable bit
  9042                           ;	MCLRE = ON, MCLR pin enabled; RE3 input pin disabled
  9043  300005                     	org	3145733
  9044  300005  81                 	db	129
  9045                           
  9046                           ;Config register CONFIG4L @ 0x300006
  9047                           ;	Stack Full/Underflow Reset Enable bit
  9048                           ;	STVREN = OFF, Stack full/underflow will not cause Reset
  9049                           ;	Single-Supply ICSP Enable bit
  9050                           ;	LVP = OFF, Single-Supply ICSP disabled
  9051                           ;	Dedicated In-Circuit Debug/Programming Port (ICPORT) Enable bit
  9052                           ;	ICPRT = OFF, ICPORT disabled
  9053                           ;	Extended Instruction Set Enable bit
  9054                           ;	XINST = OFF, Instruction set extension and Indexed Addressing mode disabled (Legacy mo
      +                          de)
  9055                           ;	Background Debugger Enable bit
  9056                           ;	DEBUG = 0x1, unprogrammed default
  9057  300006                     	org	3145734
  9058  300006  80                 	db	128
  9059                           
  9060                           ; Padding undefined space
  9061  300007                     	org	3145735
  9062  300007  FF                 	db	255
  9063                           
  9064                           ;Config register CONFIG5L @ 0x300008
  9065                           ;	Code Protection bit
  9066                           ;	CP0 = OFF, Block 0 (000800-001FFFh) is not code-protected
  9067                           ;	Code Protection bit
  9068                           ;	CP1 = OFF, Block 1 (002000-003FFFh) is not code-protected
  9069                           ;	Code Protection bit
  9070                           ;	CP2 = OFF, Block 2 (004000-005FFFh) is not code-protected
  9071                           ;	Code Protection bit
  9072                           ;	CP3 = OFF, Block 3 (006000-007FFFh) is not code-protected
  9073  300008                     	org	3145736
  9074  300008  0F                 	db	15
  9075                           
  9076                           ;Config register CONFIG5H @ 0x300009
  9077                           ;	Boot Block Code Protection bit
  9078                           ;	CPB = OFF, Boot block (000000-0007FFh) is not code-protected
  9079                           ;	Data EEPROM Code Protection bit
  9080                           ;	CPD = OFF, Data EEPROM is not code-protected
  9081  300009                     	org	3145737
  9082  300009  C0                 	db	192
  9083                           
  9084                           ;Config register CONFIG6L @ 0x30000A
  9085                           ;	Write Protection bit
  9086                           ;	WRT0 = OFF, Block 0 (000800-001FFFh) is not write-protected
  9087                           ;	Write Protection bit
  9088                           ;	WRT1 = OFF, Block 1 (002000-003FFFh) is not write-protected
  9089                           ;	Write Protection bit
  9090                           ;	WRT2 = OFF, Block 2 (004000-005FFFh) is not write-protected
  9091                           ;	Write Protection bit
  9092                           ;	WRT3 = OFF, Block 3 (006000-007FFFh) is not write-protected
  9093  30000A                     	org	3145738
  9094  30000A  0F                 	db	15
  9095                           
  9096                           ;Config register CONFIG6H @ 0x30000B
  9097                           ;	Configuration Register Write Protection bit
  9098                           ;	WRTC = OFF, Configuration registers (300000-3000FFh) are not write-protected
  9099                           ;	Boot Block Write Protection bit
  9100                           ;	WRTB = OFF, Boot block (000000-0007FFh) is not write-protected
  9101                           ;	Data EEPROM Write Protection bit
  9102                           ;	WRTD = OFF, Data EEPROM is not write-protected
  9103  30000B                     	org	3145739
  9104  30000B  E0                 	db	224
  9105                           
  9106                           ;Config register CONFIG7L @ 0x30000C
  9107                           ;	Table Read Protection bit
  9108                           ;	EBTR0 = OFF, Block 0 (000800-001FFFh) is not protected from table reads executed in ot
      +                          her blocks
  9109                           ;	Table Read Protection bit
  9110                           ;	EBTR1 = OFF, Block 1 (002000-003FFFh) is not protected from table reads executed in ot
      +                          her blocks
  9111                           ;	Table Read Protection bit
  9112                           ;	EBTR2 = OFF, Block 2 (004000-005FFFh) is not protected from table reads executed in ot
      +                          her blocks
  9113                           ;	Table Read Protection bit
  9114                           ;	EBTR3 = OFF, Block 3 (006000-007FFFh) is not protected from table reads executed in ot
      +                          her blocks
  9115  30000C                     	org	3145740
  9116  30000C  0F                 	db	15
  9117                           
  9118                           ;Config register CONFIG7H @ 0x30000D
  9119                           ;	Boot Block Table Read Protection bit
  9120                           ;	EBTRB = OFF, Boot block (000000-0007FFh) is not protected from table reads executed in
      +                           other blocks
  9121  30000D                     	org	3145741
  9122  30000D  40                 	db	64
  9123                           tosu	equ	0xFFF
  9124                           tosh	equ	0xFFE
  9125                           tosl	equ	0xFFD
  9126                           stkptr	equ	0xFFC
  9127                           pclatu	equ	0xFFB
  9128                           pclath	equ	0xFFA
  9129                           pcl	equ	0xFF9
  9130                           tblptru	equ	0xFF8
  9131                           tblptrh	equ	0xFF7
  9132                           tblptrl	equ	0xFF6
  9133                           tablat	equ	0xFF5
  9134                           prodh	equ	0xFF4
  9135                           prodl	equ	0xFF3
  9136                           indf0	equ	0xFEF
  9137                           postinc0	equ	0xFEE
  9138                           postdec0	equ	0xFED
  9139                           preinc0	equ	0xFEC
  9140                           plusw0	equ	0xFEB
  9141                           fsr0h	equ	0xFEA
  9142                           fsr0l	equ	0xFE9
  9143                           wreg	equ	0xFE8
  9144                           indf1	equ	0xFE7
  9145                           postinc1	equ	0xFE6
  9146                           postdec1	equ	0xFE5
  9147                           preinc1	equ	0xFE4
  9148                           plusw1	equ	0xFE3
  9149                           fsr1h	equ	0xFE2
  9150                           fsr1l	equ	0xFE1
  9151                           bsr	equ	0xFE0
  9152                           indf2	equ	0xFDF
  9153                           postinc2	equ	0xFDE
  9154                           postdec2	equ	0xFDD
  9155                           preinc2	equ	0xFDC
  9156                           plusw2	equ	0xFDB
  9157                           fsr2h	equ	0xFDA
  9158                           fsr2l	equ	0xFD9
  9159                           status	equ	0xFD8

Data Sizes:
    Strings     31
    Constant    0
    Data        0
    BSS         114
    Persistent  0
    Stack       0

Auto Spaces:
    Space          Size  Autos    Used
    COMRAM           94     93      94
    BANK0           160     88     121
    BANK1           256      6      86
    BANK2           256      0       0
    BANK3           256      0       0
    BANK4           256      0       0
    BANK5           256      0       0
    BANK6           256      0       0
    BANK7           256      0       0

Pointer List with Targets:

    strncmp@_r	PTR const unsigned char  size(2) Largest target is 3
		 -> STR_12(CODE[3]), 

    strncmp@r	PTR const unsigned char  size(2) Largest target is 3
		 -> STR_12(CODE[3]), 

    strncmp@_l	PTR const unsigned char  size(2) Largest target is 3
		 -> vfpfcnvrt@ct(COMRAM[3]), 

    strncmp@l	PTR const unsigned char  size(2) Largest target is 3
		 -> vfpfcnvrt@ct(COMRAM[3]), 

    strlen@s	PTR const unsigned char  size(2) Largest target is 80
		 -> dbuf(BANK1[80]), 

    strlen@a	PTR const unsigned char  size(2) Largest target is 80
		 -> dbuf(BANK1[80]), 

    strcpy@dest	PTR unsigned char  size(2) Largest target is 80
		 -> dbuf(BANK1[80]), 

    strcpy@d	PTR unsigned char  size(2) Largest target is 80
		 -> dbuf(BANK1[80]), 

    strcpy@src	PTR const unsigned char  size(2) Largest target is 80
		 -> STR_7(CODE[4]), STR_6(CODE[4]), STR_3(CODE[4]), STR_2(CODE[4]), 
		 -> dbuf(BANK1[80]), 

    strcpy@s	PTR const unsigned char  size(2) Largest target is 80
		 -> STR_7(CODE[4]), STR_6(CODE[4]), STR_3(CODE[4]), STR_2(CODE[4]), 
		 -> dbuf(BANK1[80]), 

    fputs@s	PTR const unsigned char  size(2) Largest target is 80
		 -> dbuf(BANK1[80]), 

    fputs@fp	PTR struct _IO_FILE size(2) Largest target is 7
		 -> sprintf@f(BANK0[6]), 

    fputc@fp.buffer	PTR unsigned char  size(2) Largest target is 10
		 -> datos(BANK0[10]), 

    fputc@fp	PTR struct _IO_FILE size(2) Largest target is 7
		 -> sprintf@f(BANK0[6]), 

    atoi@s	PTR const unsigned char  size(2) Largest target is 12
		 -> STR_1(CODE[12]), 

    vfprintf@ap	PTR PTR void  size(2) Largest target is 2
		 -> sprintf@ap(BANK0[2]), 

    vfprintf@fp	PTR struct _IO_FILE size(2) Largest target is 7
		 -> sprintf@f(BANK0[6]), 

    vfprintf@fmt	PTR const unsigned char  size(2) Largest target is 12
		 -> STR_1(CODE[12]), 

    vfprintf@cfmt	PTR unsigned char  size(2) Largest target is 12
		 -> STR_1(CODE[12]), 

    vfpfcnvrt@fp	PTR struct _IO_FILE size(2) Largest target is 7
		 -> sprintf@f(BANK0[6]), 

    vfpfcnvrt@ap	PTR PTR void  size(2) Largest target is 2
		 -> sprintf@ap(BANK0[2]), 

    vfpfcnvrt@fmt	PTR PTR unsigned char  size(2) Largest target is 2
		 -> vfprintf@cfmt(BANK0[2]), 

    efgtoa@fp	PTR struct _IO_FILE size(2) Largest target is 7
		 -> sprintf@f(BANK0[6]), 

    sp__strcpy	PTR unsigned char  size(2) Largest target is 80
		 -> dbuf(BANK1[80]), 

    pad@fp	PTR struct _IO_FILE size(2) Largest target is 7
		 -> sprintf@f(BANK0[6]), 

    pad@buf	PTR unsigned char  size(2) Largest target is 80
		 -> dbuf(BANK1[80]), 

    sprintf@fmt	PTR const unsigned char  size(2) Largest target is 12
		 -> STR_1(CODE[12]), 

    sprintf@s	PTR unsigned char  size(2) Largest target is 10
		 -> datos(BANK0[10]), 

    sprintf@ap	PTR void [1] size(2) Largest target is 2
		 -> ?_sprintf(BANK0[2]), 

    S1196_IO_FILE$buffer	PTR unsigned char  size(2) Largest target is 10
		 -> datos(BANK0[10]), 

    f.buffer	PTR unsigned char  size(2) Largest target is 10
		 -> datos(BANK0[10]), 

    LCD_Cadena@dat	PTR unsigned char  size(2) Largest target is 10
		 -> datos(BANK0[10]), 


Critical Paths under _main in COMRAM

    None.

Critical Paths under _TMR0_ISR in COMRAM

    None.

Critical Paths under _ADC_ISR in COMRAM

    _sprintf->_vfprintf
    _vfprintf->_vfpfcnvrt
    _vfpfcnvrt->_efgtoa
    _efgtoa->___flge
    _tolower->_isupper
    _pad->_fputs
    _fputs->_fputc
    _floorf->___fldiv
    ___flsub->___flmul
    ___flmul->___xxtofl
    ___flge->___flmul
    _atoi->_isspace
    _LCD_XY->i2_LCD_Comando
    _LCD_Cadena->_LCD_Caracter

Critical Paths under _main in BANK0

    None.

Critical Paths under _TMR0_ISR in BANK0

    None.

Critical Paths under _ADC_ISR in BANK0

    _ADC_ISR->_sprintf
    _sprintf->_vfprintf
    _vfpfcnvrt->_efgtoa

Critical Paths under _main in BANK1

    _LCD_Init->_LCD_Comando

Critical Paths under _TMR0_ISR in BANK1

    None.

Critical Paths under _ADC_ISR in BANK1

    None.

Critical Paths under _main in BANK2

    None.

Critical Paths under _TMR0_ISR in BANK2

    None.

Critical Paths under _ADC_ISR in BANK2

    None.

Critical Paths under _main in BANK3

    None.

Critical Paths under _TMR0_ISR in BANK3

    None.

Critical Paths under _ADC_ISR in BANK3

    None.

Critical Paths under _main in BANK4

    None.

Critical Paths under _TMR0_ISR in BANK4

    None.

Critical Paths under _ADC_ISR in BANK4

    None.

Critical Paths under _main in BANK5

    None.

Critical Paths under _TMR0_ISR in BANK5

    None.

Critical Paths under _ADC_ISR in BANK5

    None.

Critical Paths under _main in BANK6

    None.

Critical Paths under _TMR0_ISR in BANK6

    None.

Critical Paths under _ADC_ISR in BANK6

    None.

Critical Paths under _main in BANK7

    None.

Critical Paths under _TMR0_ISR in BANK7

    None.

Critical Paths under _ADC_ISR in BANK7

    None.

Call Graph Tables:

 ---------------------------------------------------------------------------------
 (Depth) Function   	        Calls       Base Space   Used Autos Params    Refs
 ---------------------------------------------------------------------------------
 (0) _main                                                 0     0      0      44
                           _ADC_Init
                           _INT_Init
                           _LCD_Init
                        _Timer0_Init
 ---------------------------------------------------------------------------------
 (1) _Timer0_Init                                          0     0      0       0
 ---------------------------------------------------------------------------------
 (1) _LCD_Init                                             0     0      0      44
                        _LCD_Comando
 ---------------------------------------------------------------------------------
 (2) _LCD_Comando                                          2     2      0      44
                                              4 BANK1      2     2      0
 ---------------------------------------------------------------------------------
 (1) _INT_Init                                             0     0      0       0
 ---------------------------------------------------------------------------------
 (1) _ADC_Init                                             0     0      0       0
 ---------------------------------------------------------------------------------
 Estimated maximum stack depth 2
 ---------------------------------------------------------------------------------
 (Depth) Function   	        Calls       Base Space   Used Autos Params    Refs
 ---------------------------------------------------------------------------------
 (3) _TMR0_ISR                                             4     4      0       0
                                              0 BANK1      4     4      0
 ---------------------------------------------------------------------------------
 Estimated maximum stack depth 3
 ---------------------------------------------------------------------------------
 (Depth) Function   	        Calls       Base Space   Used Autos Params    Refs
 ---------------------------------------------------------------------------------
 (4) _ADC_ISR                                             12    12      0   31217
                                             76 BANK0     12    12      0
                         _LCD_Cadena
                             _LCD_XY
                            ___flmul
                           ___xxtofl
                            _sprintf
 ---------------------------------------------------------------------------------
 (5) _sprintf                                             18    10      8   27888
                                             58 BANK0     18    10      8
                           _vfprintf
 ---------------------------------------------------------------------------------
 (6) _vfprintf                                             8     2      6   27531
                                             87 COMRAM     6     0      6
                                             56 BANK0      2     2      0
                          _vfpfcnvrt
 ---------------------------------------------------------------------------------
 (7) _vfpfcnvrt                                           48    42      6   27148
                                             63 COMRAM    24    18      6
                               _atoi
                             _efgtoa
                              _fputc
                            _isdigit
                            _isupper
                            _strncmp
                            _tolower
 ---------------------------------------------------------------------------------
 (8) _strncmp                                             11     5      6     453
                                              0 COMRAM    11     5      6
 ---------------------------------------------------------------------------------
 (8) _efgtoa                                              68    61      7   21693
                                             51 COMRAM    12     5      7
                                              0 BANK0     56    56      0
                            ___awdiv
                            ___awmod
                            ___fladd
                            ___fldiv
                             ___fleq
                             ___flge
                            ___flmul
                            ___flneg
                            ___flsub
                            ___fltol
                      ___fpclassifyf
                             _floorf
                            _isupper
                                _pad
                             _strcpy
                            _tolower
 ---------------------------------------------------------------------------------
 (8) _tolower                                              8     6      2     944
                                              6 COMRAM     8     6      2
                            _isupper
 ---------------------------------------------------------------------------------
 (9) _isupper                                              6     4      2     465
                                              0 COMRAM     6     4      2
 ---------------------------------------------------------------------------------
 (9) _strcpy                                              10     6      4     856
                                              0 COMRAM    10     6      4
 ---------------------------------------------------------------------------------
 (9) _pad                                                 11     5      6    3165
                                             16 COMRAM    11     5      6
                              _fputc
                              _fputs
                             _strlen
 ---------------------------------------------------------------------------------
 (10) _strlen                                              4     2      2     166
                                              0 COMRAM     4     2      2
 ---------------------------------------------------------------------------------
 (10) _fputs                                               7     3      4    1235
                                              9 COMRAM     7     3      4
                              _fputc
 ---------------------------------------------------------------------------------
 (8) _fputc                                                9     5      4     834
                                              0 COMRAM     9     5      4
                              _putch
 ---------------------------------------------------------------------------------
 (9) _putch                                                1     1      0       0
 ---------------------------------------------------------------------------------
 (9) _floorf                                              20    16      4     490
                                             25 COMRAM    20    16      4
                            ___fldiv (ARG)
 ---------------------------------------------------------------------------------
 (9) ___fpclassifyf                                       14    10      4     287
                                              0 COMRAM    14    10      4
 ---------------------------------------------------------------------------------
 (9) ___fltol                                             10     6      4     381
                                              0 COMRAM    10     6      4
 ---------------------------------------------------------------------------------
 (9) ___flsub                                              8     0      8    2889
                                             39 COMRAM     8     0      8
                            ___fladd
                            ___flmul (ARG)
 ---------------------------------------------------------------------------------
 (10) ___fladd                                            16     8      8    2414
                                              0 COMRAM    16     8      8
 ---------------------------------------------------------------------------------
 (9) ___flneg                                              4     0      4     121
                                              0 COMRAM     4     0      4
 ---------------------------------------------------------------------------------
 (9) ___flmul                                             25    17      8    2504
                                             14 COMRAM    25    17      8
                           ___xxtofl (ARG)
 ---------------------------------------------------------------------------------
 (9) ___flge                                              12     4      8     638
                                             39 COMRAM    12     4      8
                            ___flmul (ARG)
 ---------------------------------------------------------------------------------
 (9) ___fleq                                              12     4      8     646
                                              0 COMRAM    12     4      8
 ---------------------------------------------------------------------------------
 (9) ___fldiv                                             25    17      8    2007
                                              0 COMRAM    25    17      8
 ---------------------------------------------------------------------------------
 (9) ___awmod                                              6     2      4     448
                                              0 COMRAM     6     2      4
 ---------------------------------------------------------------------------------
 (9) ___awdiv                                              8     4      4     452
                                              0 COMRAM     8     4      4
 ---------------------------------------------------------------------------------
 (8) _atoi                                                15    13      2    1152
                                              7 COMRAM    15    13      2
                             ___wmul
                            _isdigit
                            _isspace
 ---------------------------------------------------------------------------------
 (9) _isspace                                              7     5      2     207
                                              0 COMRAM     7     5      2
 ---------------------------------------------------------------------------------
 (8) _isdigit                                              6     4      2     237
                                              0 COMRAM     6     4      2
 ---------------------------------------------------------------------------------
 (9) ___wmul                                               6     2      4     311
                                              0 COMRAM     6     2      4
 ---------------------------------------------------------------------------------
 (5) ___xxtofl                                            14    10      4     398
                                              0 COMRAM    14    10      4
 ---------------------------------------------------------------------------------
 (5) _LCD_XY                                               4     0      4     262
                                              2 COMRAM     4     0      4
                      i2_LCD_Comando
 ---------------------------------------------------------------------------------
 (6) i2_LCD_Comando                                        2     2      0      44
                                              0 COMRAM     2     2      0
 ---------------------------------------------------------------------------------
 (5) _LCD_Cadena                                           2     0      2     165
                                              2 COMRAM     2     0      2
                       _LCD_Caracter
 ---------------------------------------------------------------------------------
 (6) _LCD_Caracter                                         2     2      0      44
                                              0 COMRAM     2     2      0
 ---------------------------------------------------------------------------------
 Estimated maximum stack depth 10
 ---------------------------------------------------------------------------------

 Call Graph Graphs:

 _main (ROOT)
   _ADC_Init
   _INT_Init
   _LCD_Init
     _LCD_Comando
   _Timer0_Init

 _TMR0_ISR (ROOT)

 _ADC_ISR (ROOT)
   _LCD_Cadena
     _LCD_Caracter
   _LCD_XY
     i2_LCD_Comando
   ___flmul
     ___xxtofl (ARG)
   ___xxtofl
   _sprintf
     _vfprintf
       _vfpfcnvrt
         _atoi
           ___wmul
           _isdigit
           _isspace
         _efgtoa
           ___awdiv
           ___awmod
           ___fladd
           ___fldiv
           ___fleq
           ___flge
             ___flmul (ARG)
               ___xxtofl (ARG)
           ___flmul
             ___xxtofl (ARG)
           ___flneg
           ___flsub
             ___fladd
             ___flmul (ARG)
               ___xxtofl (ARG)
           ___fltol
           ___fpclassifyf
           _floorf
             ___fldiv (ARG)
           _isupper
           _pad
             _fputc
               _putch
             _fputs
               _fputc
                 _putch
             _strlen
           _strcpy
           _tolower
             _isupper
         _fputc
           _putch
         _isdigit
         _isupper
         _strncmp
         _tolower
           _isupper

 Address spaces:
Name               Size   Autos  Total    Cost      Usage
BIGRAM             7FF      0       0      21        0.0%
EEDATA             100      0       0       0        0.0%
BITBANK7           100      0       0      18        0.0%
BANK7              100      0       0      19        0.0%
BITBANK6           100      0       0      16        0.0%
BANK6              100      0       0      17        0.0%
BITBANK5           100      0       0      14        0.0%
BANK5              100      0       0      15        0.0%
BITBANK4           100      0       0      12        0.0%
BANK4              100      0       0      13        0.0%
BITBANK3           100      0       0      10        0.0%
BANK3              100      0       0      11        0.0%
BITBANK2           100      0       0       8        0.0%
BANK2              100      0       0       9        0.0%
BITBANK1           100      0       0       6        0.0%
BANK1              100      6      56       7       33.6%
BITBANK0            A0      0       0       4        0.0%
BANK0               A0     58      79       5       75.6%
BITCOMRAM           5E      0       0       0        0.0%
COMRAM              5E     5D      5E       1      100.0%
BITSFR               0      0       0     200        0.0%
SFR                  0      0       0     200        0.0%
STACK                0      0       0       2        0.0%
NULL                 0      0       0       0        0.0%
ABS                  0      0     12D      20        0.0%
DATA                 0      0     12D       3        0.0%
CODE                 0      0       0       0        0.0%


Microchip Technology PIC18 Macro Assembler V2.20 build 20200408173844 
Symbol Table                                                                                   Mon Jan 04 21:38:22 2021

           ___fldiv@aexp 0019             ___fldiv@bexp 0018            ?_LCD_Caracter 0001  
                      _x 005E                        _y 00CE             ___fldiv@sign 0011  
           ?_LCD_Comando 0001                       l17 3898                       l59 391E  
                     l83 380A                       l86 33D8             ___awdiv@sign 0006  
                     bsr 000FE0      ___wmul@multiplicand 0003                      l113 38F8  
                    l114 38F8                      l127 3916                      _Vin 00C0  
                    _pad 3082          __end_of_ADC_ISR 2BDA             ___awmod@sign 0006  
                    wreg 000FE8             ___flmul@aexp 0020             ___flmul@bexp 0021  
           ___flmul@sign 001B             ___flmul@temp 0026             ___flmul@prod 0022  
           ___fltol@exp1 000A                     l4030 3880                     l4032 3892  
                   l4024 386C                     l4034 3894                     l4026 387C  
                   l4036 3896                     l4028 387E                     l4038 3918  
                   l4070 37E6                     l4080 3804                     l4072 37EC  
                   l4074 37F2                     l4066 37DC                     l4090 3912  
                   l4082 3900                     l4170 38EC                     l4076 37F8  
                   l4068 37E0                     l4092 3914                     l4084 3906  
                   l4172 38F0                     l4078 37FE                     l4086 390E  
                   l4174 38F4                     l4088 3910                     l4168 38E8  
                   ?_pad 0011                     l3950 336A                     l3960 339E  
                   l3952 337A                     l3970 33D2                     l3962 33AE  
                   l3954 337C                     l3964 33B0                     l3956 338C  
                   l3966 33C0                     l3958 338E                     l3968 33C2  
                   STR_1 0801                     STR_2 080D                     STR_3 0815  
                   STR_6 0811                     STR_7 0819                     _LATD 000F8C  
                   i1l70 0068                     u4907 33CA                     i2l64 2BAE  
                   u4877 3384                     i2l86 3446                     i2l94 383A  
                   u4887 3396                     i2l89 34B0                     u4897 33B8  
                   _TMR0 000FD6                     _dbuf 0100                     _atoi 2942  
                   _main 38E8                     _prec 00C8                     _nout 00C4  
                   pad@i 0018                     pad@p 0015                     fsr1h 000FE2  
                   fsr2h 000FDA                     indf1 000FE7                     indf2 000FDF  
                   fsr1l 000FE1                     pad@w 001A                     fsr2l 000FD9  
                   btemp 005F         __end_of_ADC_Init 389A            ___fpclassifyf 2DE4  
                   prodh 000FF4                     prodl 000FF3                     start 0078  
        ___fldiv@new_exp 0012             _tolower$1480 000D             ___param_bank 000000  
         ??_LCD_Caracter 0001                    ??_pad 0017         __end_of_LCD_Init 380C  
          ___fltol@sign1 0009                    ?_atoi 0008          __end_of___fladd 1DB8  
                  ?_main 0001          __end_of___fldiv 257C          __end_of___awdiv 320C  
        __end_of___flneg 376E                    _ADRES 000FC3                    STR_10 081D  
                  STR_12 081D          __end_of___awmod 32BC          __end_of___flmul 21E2  
        __end_of___flsub 36BA          __end_of___fltol 2CE0          ___awdiv@divisor 0003  
                  i2l100 386A                    i2l130 38E6                    i2l400 2DE2  
                  i2l404 376C                    i2l361 320A                    i2l427 2CDE  
                  i2l700 36B8                    i2l374 32BA                    i2l712 257A  
                  i2l714 23DA                    i2l723 2420                    i2l395 2D9C  
                  i2l660 1A9A                    i2l725 2498                    i2l717 239E  
                  i2l389 3364                    i2l726 2486                    i2l751 2072  
                  i2l744 1E7C                    i2l808 3620                    i2l761 21A2  
                  i2l753 20EA                    i2l754 20D8                    i2l658 1AE6  
                  i2l675 1C00                    i2l667 1DB6                    i2l659 1AD4  
                  i2l748 21E0                    i2l684 1CD0                    i2l852 310A  
                  i2l916 0FA6                    i2l685 1CBE                    i2l854 3146  
                  i2l792 287C                    i2l872 13D0                    i2l785 27E4  
                  i2l849 30C8                    i2l890 0C0E                    i2l788 2940  
        ___awdiv@counter 0005                    i2l981 1840                    i2l974 18F6  
                  i2l799 28D8                    i2l959 14CE                    i2l987 350A  
                  i2l988 3512                    i2l998 2EE0             vfpfcnvrt@fmt 0042  
                  _TMR0L 000FD6         __end_of_INT_Init 3920                    _TRISD 000F95  
       __end_of_TMR0_ISR 0078                    _datos 00CF      __size_of_LCD_Cadena 0030  
                  _flags 00CA                    _fputc 2FB8                    _fputs 36BA  
        __end_of_isdigit 37A6                    atoi@n 0015                    pad@fp 0011  
                  atoi@s 0008                    _width 00C6                    _putch 3920  
        __end_of_isspace 3674          __end_of_isupper 3736                    tablat 000FF5  
                  ttemp5 0060                    ttemp6 0063                    ttemp7 0067  
                  status 000FD8                    wtemp8 0060          __end_of_sprintf 3622  
         ?___fpclassifyf 0001          __end_of_tolower 3574          __end_of_strncmp 2FB8  
        __initialization 389A             __end_of_atoi 2AD2             __end_of_main 3900  
          LCD_Cadena@dat 0003                ??_ADC_ISR 00AC                   ??_atoi 000A  
                 ??_main 0156            __activetblptr 000002                   ?_fputc 0001  
                 ?_fputs 000A         ___awdiv@dividend 0001                   ?_putch 0001  
                 _LCD_XY 380C                   i2l1030 2AD0                   i2l1102 2FB6  
                 i2l1112 356A                   i1l4160 0038                   i1l4162 005A  
                 i2l1027 2AC8                   i2l1036 278C                   i2l1060 3734  
                 i1l4164 005E                   i1l4156 0026                   i2l1117 3572  
                 i2l1046 37A4                   i2l1054 3672                   i1l4166 0066  
                 i1l4158 0028                   i2l1039 26D0                   i2l3000 23EA  
                 i2l3002 2400                   i2l3010 2430                   i2l1075 3080  
                 i2l1083 36FC                   i2l3012 243E                   i2l3004 2406  
                 i2l3100 1EDC                   i2l1092 35CE                   i2l3022 24A8  
                 i2l3030 24F0                   i2l3014 2442                   i2l3006 2410  
                 i2l3110 1F26                   i2l3102 1EE8                   i2l1086 3920  
                 i2l3200 3174                   i2l3040 255A                   i2l3032 250A  
                 i2l3024 24B4                   i2l3016 2450                   i2l3008 241E  
                 i2l3120 1F78                   i2l3112 1F32                   i2l3104 1F00  
                 i2l4000 34EE                   i2l4010 33FE                   i2l4002 33DC  
                 i2l3210 31A2                   i2l3202 317C                   i2l3042 2568  
                 i2l3034 2520                   i2l3026 24C2                   i2l3018 247E  
                 i2l3130 1FF6                   i2l3122 1F88                   i2l3114 1F42  
                 i2l3106 1F0C                   i2l1098 37DA                   i2l4020 3430  
                 i2l4012 340E                   i2l4004 33EA                   i2l4100 27F4  
                 i2l3220 31DC                   i2l3212 31AA                   i2l3204 3180  
                 i2l3044 256E                   i2l3036 253A                   i2l3028 24EC  
                 i2l3300 2D8A                   i2l3140 2070                   i2l3132 202C  
                 i2l3124 1FA4                   i2l3116 1F4E                   i2l3108 1F18  
                 i2l3060 1DD4                   i2l4022 3440                   i2l4014 341C  
                 i2l4006 33EC                   i2l4110 2832                   i2l4102 280A  
                 i2l3230 3202                   i2l3222 31DE                   i2l3214 31B8  
                 i2l3206 3188                   i2l3046 2570                   i2l3038 2556  
                 i2l3302 2DDA                   i2l3150 20D0                   i2l3142 2082  
                 i2l3134 203A                   i2l3126 1FB0                   i2l3118 1F5E  
                 i2l3070 1E1A                   i2l3062 1DE4                   i2l3054 1DB8  
                 i2l3310 374C                   i2l4016 341E                   i2l4008 33FC  
                 i2l4120 28BA                   i2l4112 2864                   i2l3224 31E4  
                 i2l3216 31BE                   i2l3208 319A                   i2l3240 3226  
                 i2l3304 2DE0                   i2l3160 213E                   i2l3144 2090  
                 i2l3136 2058                   i2l3128 1FCC                   i2l3080 1E46  
                 i2l3072 1E20                   i2l3064 1DF4                   i2l3056 1DC4  
                 i2l3312 375C                   i2l3400 2ED8                   i2l4040 35D0  
                 i2l4018 342E                   i2l4130 2910                   i2l4122 28C8  
                 i2l4114 2866                   i2l4106 281E                   i2l3218 31D4  
                 i2l3226 31EA                   i2l3250 325A                   i2l3242 322A  
                 i2l3234 320C                   i2l3170 21A6                   i2l3154 20FA  
                 i2l3162 2142                   i2l3146 2094                   i2l3138 2062  
                 i2l3090 1E9C                   i2l3082 1E56                   i2l3074 1E26  
                 i2l3066 1E04                   i2l3058 1DD2                   i2l3330 2C44  
                 i2l3322 2C04                   i2l4042 35E2                   i2l4060 3840  
                 i2l4052 380C                   i2l4132 2920                   i2l4124 28E6  
                 i2l4116 2872                   i2l4108 2826                   i2l3228 31FA  
                 i2l3260 3294                   i2l3252 3262                   i2l3244 3238  
                 i2l3236 3210                   i2l3180 21D0                   i2l3172 21B6  
                 i2l3164 215C                   i2l3156 2106                   i2l3148 20A2  
                 i2l3084 1E66                   i2l3076 1E34                   i2l3068 1E0A  
                 i2l3308 3736                   i2l2700 1946                   i2l3340 2C74  
                 i2l3332 2C52                   i2l3324 2C2E                   i2l3316 2BDA  
                 i2l3420 259C                   i2l3404 3574                   i2l3412 354A  
                 i2l3500 094A                   i2l4044 35EA                   i2l4140 2AFC  
                 i2l4062 384E                   i2l4054 3826                   i2l4134 292E  
                 i2l4126 28E8                   i2l4118 28AE                   i2l3190 3148  
                 i2l3254 3270                   i2l3262 329A                   i2l3246 3240  
                 i2l3238 321E                   i2l3270 32BC                   i2l3174 21C4  
                 i2l3166 2170                   i2l3158 2114                   i2l3094 1EB0  
                 i2l3086 1E6C                   i2l3078 1E36                   i2l2710 1978  
                 i2l2702 194E                   i2l3350 2C9E                   i2l3342 2C7E  
                 i2l3326 2C30                   i2l3318 2BF0                   i2l3430 2684  
                 i2l3422 25F2                   i2l3406 3584                   i2l3414 355C  
                 i2l3502 0966                   i2l3510 09B0                   i2l4046 35F2  
                 i2l4150 2B90                   i2l4142 2B04                   i2l4064 3852  
                 i2l4056 3832                   i2l4136 2930                   i2l4128 28EC  
                 i2l3192 314C                   i2l3264 32AA                   i2l3256 3286  
                 i2l3248 3252                   i2l3280 335C                   i2l3272 32EA  
                 i2l3176 21C6                   i2l3168 218A                   i2l3096 1EBC  
                 i2l3088 1E8C                   i2l2800 1B50                   i2l2720 19AE  
                 i2l2712 197E                   i2l2704 195E                   i2l3184 3674  
                 i2l3352 2CAE                   i2l3328 2C40                   i2l3440 276C  
                 i2l3432 26C0                   i2l3424 2606                   i2l3360 3082  
                 i2l3408 3514                   i2l3600 0D44                   i2l3520 0A3A  
                 i2l3512 09D6                   i2l3504 097E                   i2l4048 360E  
                 i2l4152 2BAA                   i2l4144 2B4A                   i2l4058 383C  
                 i2l3450 3622                   i2l3194 315A                   i2l3266 32B2  
                 i2l3258 328E                   i2l3282 3362                   i2l3274 32FA  
                 i2l3290 2D1E                   i2l3178 21CC                   i2l3098 1EC6  
                 i2l2802 1B54                   i2l2810 1B74                   i2l2730 19EA  
                 i2l2722 19BE                   i2l2714 198C                   i2l2706 1964  
                 i2l3186 3684                   i2l3354 2CBE                   i2l3338 2C6A  
                 i2l3442 277C                   i2l3426 2614                   i2l3434 26F4  
                 i2l3418 257C                   i2l3370 30D4                   i2l3362 3092  
                 i2l3602 0D58                   i2l3610 0E4E                   i2l3530 0A70  
                 i2l3506 0988                   i2l4226 148E                   i2l4154 2BAC  
                 i2l4146 2B70                   i2l3452 3626                   i2l4228 29FE  
                 i2l3196 3162                   i2l3276 3328                   i2l3292 2D4C  
                 i2l2812 1B9A                   i2l2820 1BF0                   i2l2804 1B62  
                 i2l2740 1A08                   i2l2732 19F8                   i2l2724 19C0  
                 i2l2716 198E                   i2l2708 1976                   i2l3356 2CCE  
                 i2l3348 2C92                   i2l3436 2730                   i2l2900 37B6  
                 i2l3372 30E8                   i2l3364 30A6                   i2l3700 1234  
                 i2l3620 0F1A                   i2l3612 0E6C                   i2l3604 0DBC  
                 i2l3540 0B3A                   i2l3516 0A0C                   i2l4148 2B84  
                 i2l4094 2790                   i2l2910 38C2                   i2l3446 376E  
                 i2l3454 363A                   i2l3198 3166                   i2l3278 3338  
                 i2l3294 2D5C                   i2l3286 2CE0                   i2l2830 1C44  
                 i2l2822 1C16                   i2l2814 1BCE                   i2l2806 1B64  
                 i2l2750 1A1C                   i2l2742 1A0C                   i2l2734 19FC  
                 i2l2718 199E                   i2l2726 19C8                   i2l3390 2E76  
                 i2l3382 2DE4                   i2l3438 2744                   i2l2902 37CE  
                 i2l3374 30EC                   i2l3366 30B4                   i2l3710 126A  
                 i2l3702 1244                   i2l3630 0F92                   i2l3622 0F2A  
                 i2l3614 0EA0                   i2l3606 0E14                   i2l3550 0BBC  
                 i2l3542 0B6E                   i2l3534 0AA6                   i2l3518 0A1E  
                 i2l3470 0852                   i2l3462 0822                   i2l4096 27A0  
                 i2l2912 38DE                   i2l3456 3668                   i2l2920 21FC  
                 i2l3296 2D6A                   i2l3288 2D0E                   i2l2840 1C6E  
                 i2l2832 1C52                   i2l2824 1C26                   i2l2816 1BD0  
                 i2l2808 1B6E                   i2l2760 1A30                   i2l2752 1A20  
                 i2l2744 1A10                   i2l2736 1A00                   i2l2728 19D8  
                 i2l3384 2E04                   i2l2680 3004                   i2l2672 2FB8  
                 i2l3376 311A                   i2l3368 30C0                   i2l3720 12C6  
                 i2l3712 1276                   i2l3704 124C                   i2l3640 1048  
                 i2l3632 0F9E                   i2l3624 0F3A                   i2l3616 0ED2  
                 i2l3608 0E48                   i2l3552 0BCE                   i2l3560 0C1A  
                 i2l3544 0B76                   i2l3536 0ADA                   i2l3528 0A56  
                 i2l3480 08A8                   i2l3472 0876                   i2l3464 082C  
                 i2l4098 27AE                   i2l3458 366C                   i2l2930 2230  
                 i2l2922 21FE                   i2l3298 2D7C                   i2l2850 1CA0  
                 i2l2842 1C7E                   i2l2834 1C54                   i2l2818 1BE0  
                 i2l2770 1A82                   i2l2762 1A34                   i2l2754 1A24  
                 i2l2746 1A14                   i2l2738 1A04                   i2l2690 1912  
                 i2l3386 2E42                   i2l3394 2E82                   i2l2682 303A  
                 i2l2674 2FCA                   i2l3378 312E                   i2l2906 36FE  
                 i2l3730 1310                   i2l3714 127C                   i2l3722 12CC  
                 i2l3706 125A                   i2l3650 1090                   i2l3642 105A  
                 i2l3634 0FC2                   i2l3626 0F6E                   i2l3618 0EE8  
                 i2l3570 0C5A                   i2l3554 0BE0                   i2l3538 0AE0  
                 i2l3546 0BA8                   i2l3490 08D6                   i2l3482 08BA  
                 i2l3474 0880                   i2l3466 083C                   i2l3810 2F26  
                 i2l3802 2EE2                   i2l2940 2262                   i2l2924 220E  
                 i2l2932 2238                   i2l2916 21E2                   i2l2860 1CFA  
                 i2l2852 1CB6                   i2l2836 1C62                   i2l2828 1C3A  
                 i2l2844 1C80                   i2l2780 1AC6                   i2l2772 1A92  
                 i2l2756 1A28                   i2l2748 1A18                   i2l2764 1A38  
                 i2l2692 1914                   i2l3396 2E94                   i2l3388 2E6A  
                 i2l2676 2FDC                   i2l3740 1340                   i2l3732 131C  
                 i2l3724 12DE                   i2l3716 12A2                   i2l3708 1262  
                 i2l3660 10C6                   i2l3652 10A0                   i2l3644 1068  
                 i2l3636 1026                   i2l3628 0F7E                   i2l3580 0CB6  
                 i2l3572 0C90                   i2l3556 0BE8                   i2l3548 0BB8  
                 i2l3484 08C6                   i2l3492 08DC                   i2l3476 0888  
                 i2l3468 084A                   i2l3812 2F3E                   i2l3804 2F0C  
                 i2l3900 1704                   i2l2950 2296                   i2l2942 2264  
                 i2l2934 2248                   i2l2926 221E                   i2l2918 21EE  
                 i2l2870 1D76                   i2l2862 1D34                   i2l2838 1C6A  
                 i2l2846 1C8E                   i2l2782 1AC8                   i2l2774 1AA8  
                 i2l2766 1A3C                   i2l2758 1A2C                   i2l2694 1924  
                 i2l2686 18F8                   i2l2678 2FE6                   i2l3750 139A  
                 i2l3734 1324                   i2l3726 12F8                   i2l3718 12BE  
                 i2l3670 10FA                   i2l3662 10CA                   i2l3654 10A4  
                 i2l3638 1036                   i2l3646 1070                   i2l3590 0CFA  
                 i2l3582 0CC8                   i2l3574 0C98                   i2l3566 0C2C  
                 i2l3558 0C02                   i2l3494 0902                   i2l3486 08CE  
                 i2l3478 089A                   i2l3814 2F5A                   i2l3910 17CA  
                 i2l3830 141A                   i2l3822 13D2                   i2l3760 2942  
                 i2l2960 22DC                   i2l2944 2274                   i2l2952 229E  
                 i2l2936 224E                   i2l2928 222E                   i2l2880 1D96  
                 i2l2872 1D7A                   i2l2856 1CE0                   i2l2864 1D36  
                 i2l2848 1C92                   i2l2792 1B18                   i2l2784 1AD2  
                 i2l2776 1AB4                   i2l2768 1A66                   i2l2696 1934  
                 i2l2688 1904                   i2l3752 13AA                   i2l3744 1374  
                 i2l3736 1334                   i2l3728 12FE                   i2l3680 1198  
                 i2l3672 10FE                   i2l3664 10D0                   i2l3656 10AA  
                 i2l3648 1082                   i2l3592 0D12                   i2l3584 0CD6  
                 i2l3568 0C3E                   i2l3576 0C9C                   i2l3488 08D2  
                 i2l3816 2F6C                   i2l3808 2F18                   i2l3912 17DC  
                 i2l3920 1854                   i2l3904 1730                   i2l3840 1444  
                 i2l3832 1426                   i2l3824 13F6                   i2l3770 29B0  
                 i2l3762 2956                   i2l2970 2304                   i2l2962 22E0  
                 i2l2954 22AE                   i2l2946 2284                   i2l2938 2254  
                 i2l2882 1DA4                   i2l2874 1D88                   i2l2866 1D46  
                 i2l2858 1CEC                   i2l2794 1B28                   i2l2786 1AF4  
                 i2l2778 1AB8                   i2l2698 1944                   i2l2890 36C6  
                 i2l3754 13B0                   i2l3746 1386                   i2l3738 133A  
                 i2l3690 11F6                   i2l3658 10B6                   i2l3666 10D6  
                 i2l3674 1104                   i2l3682 119C                   i2l3594 0D24  
                 i2l3586 0CDA                   i2l3578 0CA4                   i2l3498 0938  
                 i2l3818 2F94                   i2l3922 1878                   i2l3930 18A6  
                 i2l3914 1810                   i2l3906 175E                   i2l3834 142A  
                 i2l3826 1404                   i2l3780 29D8                   i2l3772 29B4  
                 i2l3764 295A                   i2l2980 2352                   i2l2956 22C4  
                 i2l2948 2294                   i2l2884 1DA6                   i2l2876 1D8E  
                 i2l2868 1D56                   i2l2796 1B36                   i2l2788 1B04  
                 i2l2892 36D8                   i2l3748 1392                   i2l3692 1206  
                 i2l3684 11BA                   i2l3676 115C                   i2l3668 10E8  
                 i2l3588 0CEC                   i2l3596 0D2C                   i2l3932 18B4  
                 i2l3924 1886                   i2l3860 14DE                   i2l3852 145C  
                 i2l3844 144C                   i2l3836 143C                   i2l3828 1416  
                 i2l3782 29E0                   i2l3766 295E                   i2l2990 239C  
                 i2l2982 2362                   i2l2974 2318                   i2l2958 22D4  
                 i2l2966 22F4                   i2l2878 1D90                   i2l2798 1B44  
                 i2l2894 36DC                   i2l3694 120A                   i2l3686 11D6  
                 i2l3678 1190                   i2l3598 0D34                   i2l3926 189A  
                 i2l3870 153E                   i2l3862 14E0                   i2l3792 2A88  
                 i2l3784 2A14                   i2l3776 29BA                   i2l3768 297A  
                 i2l2992 23A8                   i2l2984 236A                   i2l2976 2332  
                 i2l2968 2304                   i2l2888 36BA                   i2l2896 37A6  
                 i2l3696 121A                   i2l3688 11E8                   i2l3880 15EC  
                 i2l3872 1578                   i2l3864 1504                   i2l3856 1468  
                 i2l3848 1454                   i2l3936 18C0                   i2l3794 2A9A  
                 i2l3778 29D0                   i2l2994 23C6                   i2l2986 237A  
                 i2l2978 2342                   i2l2898 37B2                   i2l3698 122C  
                 i2l3938 18E4                   i2l3890 166E                   i2l3874 1598  
                 i2l3866 150C                   i2l3882 15FE                   i2l3858 14BC  
                 i2l3980 3468                   i2l3972 344A                   i2l3796 2AAC  
                 i2l3788 2A4A                   i2l2996 23C8                   i2l2988 238E  
                 i2l3892 169E                   i2l3884 161E                   i2l3876 15A6  
                 i2l3868 151A                   i2l3990 349A                   i2l3982 3478  
                 i2l3974 3454                   i2l2998 23D8                   i2l3894 16B0  
                 i2l3886 162E                   i2l3992 34AA                   i2l3984 3486  
                 i2l3976 3456                   i2l3896 16C6                   i2l3888 165E  
                 i2l3986 3488                   i2l3978 3466                   i2l3898 16D4  
                 i2l3994 34B2                   i2l3988 3498                   i2l3996 34BA  
                 i2l3998 34C8            vfpfcnvrt@done 004A         __end_of___xxtofl 2942  
          ??_Timer0_Init 0154             vfprintf@cfmt 0098                   ___flge 2CE0  
                 ___fleq 32BC                ??___fladd 0009                   ___wmul 38C2  
              ??___fldiv 0009                ??___awdiv 0005                ??___flneg 0005  
              ??___awmod 0005                ??___flmul 0017                ??___flsub 0030  
              ??___fltol 0005                   _efgtoa 0822                   _floorf 257C  
                 clear_0 38A0                   clear_1 38AC         ___awdiv@quotient 0007  
        ___awmod@divisor 0003          ___awmod@counter 0005                   pad@buf 0013  
   __size_of_LCD_Comando 0074                   _strcpy 3574                   _strlen 37A6  
                 fputc@c 0001                   fputs@c 000E                   fputs@i 000F  
                 fputs@s 000A                ??_isdigit 0003          ___fpclassifyf@e 0009  
              ?_ADC_Init 0001          ___fpclassifyf@u 000B          ___fpclassifyf@x 0001  
           __mediumconst 0000                ??_isspace 0003                   tblptrh 000FF7  
              ??_isupper 0003                   tblptrl 000FF6                   tblptru 000FF8  
                 putch@c 0001         __end_of_vfprintf 3514     __end_of_LCD_Caracter 34B2  
              ??_sprintf 005E                ??_tolower 0009                ??_strncmp 0007  
             ___flge@ff1 0028               ___flge@ff2 002C          ??___fpclassifyf 0005  
           ___xxtofl@arg 000B             ___xxtofl@exp 000A             ___xxtofl@val 0001  
             ___fleq@ff1 0001               ___fleq@ff2 0005   __size_ofi2_LCD_Comando 006E  
             __accesstop 0060  __end_of__initialization 38B4                ?_LCD_Init 0001  
             ___flneg@f1 0001            ___rparam_used 000001               ___fltol@f1 0001  
              ?_INT_Init 0001             ??_LCD_Cadena 0005           __pcstackCOMRAM 0001  
              ?_TMR0_ISR 0001         i2LCD_Comando@cmd 0002            __end_of_fputc 3082  
          __end_of_fputs 36FE      __end_of_Timer0_Init 3918            __end_of_putch 3922  
             ??_ADC_Init 0154                  ??_fputc 0005                  ??_fputs 000E  
     __end_of_LCD_Cadena 386C                  ??_putch 0001               __pbssBANK0 00B8  
             __pbssBANK1 0100                  ?_LCD_XY 0003                  LCD_XY@x 0003  
                LCD_XY@y 0005               ??_LCD_Init 0156               ??_INT_Init 0154  
                ?___flge 0028                  ?___fleq 0001                  ?___wmul 0001  
             ??_TMR0_ISR 0150                  ?_efgtoa 0034                  ?_floorf 001A  
                _ADC_ISR 0008            i2_LCD_Comando 33DA                  ?_strcpy 0001  
                ?_strlen 0001         LCD_Caracter@data 0002                ?___xxtofl 0001  
     __size_of_vfpfcnvrt 0526          __size_of_LCD_XY 0030                  __Hparam 0000  
            _Timer0_Init 3900                  __Lparam 0000          __size_of___flge 0104  
        __size_of___fleq 00AA                  ___fladd 18F8                  ___fldiv 21E2  
                ___awdiv 3148                  ___flneg 3736                  ___awmod 320C  
                ___flmul 1DB8                  ___flsub 3674                  ___fltol 2BDA  
        __size_of___wmul 0026                ?_vfprintf 0058             __psmallconst 0800  
        __size_of_efgtoa 0BB0           ?i2_LCD_Comando 0001          __size_of_floorf 0212  
                __pcinit 389A                  __ramtop 0800                  __ptext0 38E8  
                __ptext1 3900                  __ptext2 37DC                  __ptext3 3366  
                __ptext4 3918                  __ptext5 386C                  __ptext8 35D0  
                __ptext9 34B2                _T0CONbits 000FD5          __size_of_strcpy 005C  
        __size_of_strlen 0036    __size_of_LCD_Caracter 006A             __size_of_pad 00C6  
                _isdigit 376E               ??___xxtofl 0005         ___awmod@dividend 0001  
                _isspace 3622                  _isupper 36FE                  efgtoa@c 003A  
                efgtoa@d 0078                  efgtoa@e 0090                  efgtoa@f 0036  
                efgtoa@g 008C                  efgtoa@h 0082                  efgtoa@i 008A  
                efgtoa@l 0086                  efgtoa@m 0074                  efgtoa@n 0092  
                efgtoa@p 007C                  efgtoa@t 0070                  efgtoa@u 0094  
                efgtoa@w 007F                  atoi@neg 000E           LCD_Comando@cmd 0155  
                _sprintf 35D0                  _tolower 3514                  _strncmp 2EE2  
         __pintcode_body 2AD2     end_of_initialization 38B4                  floorf@e 0028  
                floorf@m 0024                  floorf@u 002A                  floorf@x 001A  
                fputc@fp 0003            __Lmediumconst 0000                  int_func 2AD2  
                fputs@fp 000C        __end_of_vfpfcnvrt 18F8               efgtoa@mode 0081  
             efgtoa@sign 007A                  postdec2 000FDD                  postinc0 000FEE  
                postinc1 000FE6                  postinc2 000FDE             _LCD_Caracter 3448  
             ??_vfprintf 005E                  strcpy@d 0009                  strlen@a 0003  
                strcpy@s 0007                  strlen@s 0001              ___fladd@grs 0010  
          ___xxtofl@sign 0009              ___fldiv@grs 0014              ___fldiv@rem 000D  
      __size_of_ADC_Init 002E              ___flmul@grs 001C           __end_of_LCD_XY 383C  
      __size_of_LCD_Init 0030          ??i2_LCD_Comando 0001            ??_LCD_Comando 0154  
      __size_of_INT_Init 0008           __end_of___flge 2DE4           __end_of___fleq 3366  
            vfpfcnvrt@ap 0044              vfpfcnvrt@ct 0054              vfpfcnvrt@fp 0040  
         __end_of___wmul 38E8           __end_of_efgtoa 13D2        __size_of_TMR0_ISR 0060  
         __end_of_floorf 278E               floorf@F524 00B8           __end_of_strcpy 35D0  
         __end_of_strlen 37DC      start_initialization 389A              __end_of_pad 3148  
               ??_LCD_XY 0007    __end_of___fpclassifyf 2EE2              vfprintf@fmt 005A  
               ??___flge 0030                 ??___fleq 0009                 ??___wmul 0005  
               ??_efgtoa 003B                 ??_floorf 001E                 ?_ADC_ISR 0001  
               ??_strcpy 0005                 ??_strlen 0003                ___fladd@a 0005  
              ___fladd@b 0001                ___fldiv@a 0005                ___fldiv@b 0001  
    __end_of_LCD_Comando 33DA                ___flmul@a 0013                ___flmul@b 000F  
            __pbssCOMRAM 005E                ___flsub@a 002C                ___flsub@b 0028  
          __pcstackBANK0 0060            __pcstackBANK1 0150        __size_of___xxtofl 01B4  
              _atoi$1385 0010                _atoi$1386 0014                _atoi$1387 0012  
           ?_Timer0_Init 0001              _efgtoa$1321 0064              _efgtoa$1322 0066  
            _efgtoa$1331 006A              _efgtoa$1332 006C              _efgtoa$1333 006E  
            _efgtoa$1327 0068                __pintcode 0008                 ?___fladd 0001  
               ?___fldiv 0001                 ?___awdiv 0001                 ?___flneg 0001  
               ?___awmod 0001                 ?___flmul 000F                 ?___flsub 0028  
               ?___fltol 0001              __pintcodelo 0018        __size_of_vfprintf 0062  
            __smallconst 0800                 ?_isdigit 0001                 _ADC_Init 386C  
               ?_isspace 0001                 ?_isupper 0001                 ?_sprintf 009A  
               ?_tolower 0007           __size_of_fputc 00CA           __size_of_fputs 0044  
               ?_strncmp 0001           __size_of_putch 0002                 _LCD_Init 37DC  
         ___wmul@product 0005                 _LATDbits 000F8C                 _IPR1bits 000F9F  
               _PIE1bits 000F9D                 i2u300_40 237A                 i2u300_41 2376  
               i2u301_40 239C                 i2u301_41 2398                 i2u310_40 24A8  
               i2u302_40 23C6                 i2u310_41 24A4                 i2u302_41 23C2  
               i2u311_40 24C2                 i2u303_40 23EA                 i2u311_41 24BE  
               i2u303_41 23E6                 i2u312_40 250A                 i2u304_40 2400  
               i2u320_40 1E56                 i2u400_40 09D6                 i2u312_41 2506  
               i2u304_41 23FC                 i2u320_41 1E52                 i2u400_41 09D2  
               i2u313_40 253A                 i2u305_40 241E                 i2u321_40 1E8C  
               i2u401_40 0A04                 i2u313_41 2536                 i2u305_41 241A  
               i2u321_41 1E88                 i2u401_41 09FE                 i2u314_40 2568  
               i2u306_40 243E                 i2u330_40 2114                 i2u322_40 1E9C  
               i2u250_40 1924                 i2u410_40 0C28                 i2u402_40 0A06  
               i2u314_41 2564                 i2u306_41 243A                 i2u330_41 2110  
               i2u322_41 1E98                 i2u250_41 1920                 i2u410_41 0C24  
               i2u307_40 2450                 i2u331_40 215C                 i2u323_40 2016  
               i2u315_40 1DD2                 i2u251_40 1934                 i2u411_40 0C3E  
               i2u403_40 0A1E                 i2u307_41 244C                 i2u331_41 2158  
               i2u315_41 1DCE                 i2u251_41 1930                 i2u411_41 0C3A  
               i2u403_41 0A1A                 i2u323_45 200C                 i2u340_40 321E  
               i2u308_40 247E                 i2u332_40 218A                 i2u324_40 2070  
               i2u316_40 1DE4                 i2u260_40 1A80                 i2u252_40 1976  
               i2u420_40 0E6C                 i2u412_40 0C5A                 i2u404_40 0AA2  
               i2u340_41 321A                 i2u308_41 247A                 i2u332_41 2186  
               i2u324_41 206C                 i2u316_41 1DE0                 i2u252_41 1972  
               i2u420_41 0E68                 i2u412_41 0C56                 i2u404_41 0A9E  
               i1u485_20 0038                 i1u485_21 0034                 i2u341_40 3238  
               i2u309_40 2494                 i2u333_40 21C4                 i2u325_40 2090  
               i2u317_40 1DF4                 i2u261_40 1AA8                 i2u253_40 198C  
               i2u245_40 2FCA                 i2u421_40 0ED2                 i2u413_40 0C90  
               i2u405_40 0B36                 i2u341_41 3234                 i2u309_41 2490  
               i2u333_41 21C0                 i2u325_41 208C                 i2u317_41 1DF0  
               i2u261_41 1AA4                 i2u253_41 1988                 i2u245_41 2FC6  
               i2u421_41 0ECE                 i2u413_41 0C8C                 i2u405_41 0B32  
               i1u486_20 0048                 i1u486_21 0042                 i2u334_40 315A  
               i2u342_40 3252                 i2u350_40 2D4C                 i2u326_40 20A2  
               i2u318_40 1E34                 i2u270_40 1BE0                 i2u262_40 1AC6  
               i2u254_40 199E                 i2u246_40 2FDC                 i2u430_40 1090  
               i2u422_40 0F1A                 i2u414_40 0CB6                 i2u406_40 0BA8  
               i2u334_41 3156                 i2u342_41 324E                 i2u350_41 2D48  
               i2u326_41 209E                 i2u318_41 1E30                 i2u270_41 1BDC  
               i2u262_41 1AC2                 i2u254_41 199A                 i2u246_41 2FD8  
               i2u430_41 108C                 i2u422_41 0F16                 i2u414_41 0CB2  
               i2u406_41 0BA4                 i1u486_26 004A                 i2u335_40 3174  
               i2u343_40 3270                 i2u351_40 2D6A                 i2u327_40 20D0  
               i2u319_40 1E46                 i2u271_40 1C16                 i2u263_40 1AE6  
               i2u255_40 19AE                 i2u247_40 3004                 i2u431_40 10E8  
               i2u423_40 0F2A                 i2u415_40 0CC8                 i2u407_40 0BCE  
               i2u335_41 3170                 i2u343_41 326C                 i2u351_41 2D66  
               i2u327_41 20CC                 i2u319_41 1E42                 i2u271_41 1C12  
               i2u263_41 1AE2                 i2u255_41 19AA                 i2u247_41 3000  
               i2u431_41 10E4                 i2u423_41 0F26                 i2u415_41 0CC4  
               i2u407_41 0BCA                 i2u336_40 319A                 i2u344_40 3286  
               i2u352_40 2D8A                 i2u328_40 20E6                 i2u280_40 1CE0  
               i2u272_40 1C26                 i2u264_40 1AF4                 i2u256_40 19EA  
               i2u360_40 2CAE                 i2u248_40 303A                 i2u440_40 1310  
               i2u432_40 11BA                 i2u424_40 0F92                 i2u416_40 0CD6  
               i2u408_40 0BE0                 i2u336_41 3196                 i2u344_41 3282  
               i2u352_41 2D86                 i2u328_41 20E2                 i2u280_41 1CDC  
               i2u272_41 1C22                 i2u264_41 1AF0                 i2u256_41 19E6  
               i2u360_41 2CAA                 i2u248_41 3036                 i2u440_41 130C  
               i2u432_41 11B6                 i2u424_41 0F8E                 i2u416_41 0CD2  
               i2u408_41 0BDC                 i2u337_40 31B8                 i2u345_40 32AA  
               i2u353_40 2DDA                 i2u329_40 20FA                 i2u281_40 1CFA  
               i2u273_40 1C52                 i2u265_40 1B04                 i2u257_40 19F8  
               i2u249_40 1912                 i2u361_40 2CBE                 i2u441_40 136E  
               i2u433_40 11D6                 i2u425_40 1036                 i2u417_40 0CEC  
               i2u409_40 0C02                 i2u337_41 31B4                 i2u345_41 32A6  
               i2u353_41 2DD6                 i2u329_41 20F6                 i2u281_41 1CF6  
               i2u273_41 1C4E                 i2u265_41 1B00                 i2u257_41 19F4  
               i2u249_41 190E                 i2u361_41 2CBA                 i2u441_41 1368  
               i2u433_41 11D2                 i2u425_41 1032                 i2u417_41 0CE8  
               i2u409_41 0BFE                 _PIR1bits 000F9E                 i2u450_40 2AAC  
               i2u338_40 31D4                 i2u346_40 32EA                 i2u354_40 374C  
               i2u282_40 1D34                 i2u274_40 1C62                 i2u266_40 1B36  
               i2u258_40 1A66                 i2u362_40 3092                 i2u290_40 372E  
               i2u442_40 1370                 i2u434_40 11E8                 i2u426_40 1048  
               i2u418_40 0CFA                 i2u450_41 2AA8                 i2u338_41 31D0  
               i2u346_41 32E6                 i2u354_41 3748                 i2u282_41 1D30  
               i2u274_41 1C5E                 i2u266_41 1B32                 i2u258_41 1A62  
               i2u362_41 308E                 i2u290_41 3728                 i2u434_41 11E4  
               i2u426_41 1044                 i2u418_41 0CF6                 i2u370_45 2EA6  
               i2u339_40 31FA                 i2u347_40 3328                 i2u283_40 1D46  
               i2u275_40 1C7E                 i2u267_40 1B44                 i2u259_40 1A7E  
               i2u355_40 2BF0                 i2u371_40 2ECE                 i2u363_40 30B4  
               i2u291_40 3730                 i2u443_40 1386                 i2u435_40 11F6  
               i2u427_40 105A                 i2u419_40 0D24                 i2u451_40 2F0C  
               i2u339_41 31F6                 i2u347_41 3324                 i2u283_41 1D42  
               i2u275_41 1C7A                 i2u267_41 1B40                 i2u259_41 1A78  
               i2u355_41 2BEC                 i2u371_41 2EC8                 i2u363_41 30B0  
               i2u443_41 1382                 i2u435_41 11F2                 i2u427_41 1056  
               i2u419_41 0D20                 i2u451_41 2F08                 i2u444_40 297A  
               i2u292_40 21FC                 i2u348_40 335C                 i2u284_40 1D56  
               i2u276_40 1C8E                 i2u268_40 1B62                 i2u356_40 2C24  
               i2u372_40 2ED0                 i2u380_40 2614                 i2u364_40 310A  
               i2u436_40 122C                 i2u428_40 1068                 i2u452_40 2F3E  
               i2u460_40 153E                 i2u444_41 2976                 i2u292_41 21F8  
               i2u348_41 3358                 i2u284_41 1D52                 i2u276_41 1C8A  
               i2u268_41 1B5E                 i2u380_41 2610                 i2u364_41 3106  
               i2u436_41 1228                 i2u428_41 1064                 i2u452_41 2F3A  
               i2u460_41 153A                 _INT_Init 3918                 i2u356_45 2C1A  
               i2u445_40 29B0                 i2u293_40 220E                 i2u349_40 2D0E  
               i2u285_40 1D76                 i2u277_40 1CA0                 i2u269_40 1B9A  
               i2u357_40 2C52                 i2u365_40 311A                 i2u373_40 35BC  
               i2u437_40 125A                 i2u429_40 1082                 i2u453_40 2F5A  
               i2u461_40 15E6                 i2u445_41 29AC                 i2u293_41 220A  
               i2u349_41 2D0A                 i2u285_41 1D72                 i2u277_41 1C9C  
               i2u269_41 1B96                 i2u357_41 2C4E                 i2u365_41 3116  
               i2u437_41 1256                 i2u429_41 107E                 i2u453_41 2F56  
               i2u461_41 15E0                 i2u381_45 2628                 i2u381_46 2632  
               i2u381_47 2642                 i2u373_47 35B2                 i2u390_40 363A  
               i2u446_40 29CC                 i2u294_40 221E                 i2u286_40 1D88  
               i2u278_40 1CB6                 i2u358_40 2C66                 i2u366_40 2E24  
               i2u382_40 2680                 i2u374_40 35CE                 i2u438_40 12DE  
               i2u454_40 2F6C                 i2u470_40 17DC                 i2u462_40 15E8  
               i2u390_41 3636                 i2u446_41 29C8                 i2u294_41 221A  
               i2u286_41 1D84                 i2u278_41 1CB2                 i2u358_41 2C62  
               i2u382_41 267C                 i2u374_41 35CA                 i2u438_41 12DA  
               i2u454_41 2F68                 i2u470_41 17D8                 i2u366_45 2E1A  
               i2u391_40 3668                 i2u447_40 2A82                 i2u295_40 2262  
               i2u287_40 1DA4                 i2u279_40 1CCC                 i2u359_40 2C8E  
               i2u367_40 2E42                 i2u383_40 26A4                 i2u375_40 3544  
               i2u439_40 12F8                 i2u455_40 2F94                 i2u471_40 1878  
               i2u463_40 15FE                 i2u391_41 3664                 i2u447_41 2A7C  
               i2u295_41 225E                 i2u287_41 1DA0                 i2u279_41 1CC8  
               i2u359_41 2C8A                 i2u367_41 2E3E                 i2u375_41 353E  
               i2u439_41 12F4                 i2u455_41 2F90                 i2u471_41 1874  
               i2u463_41 15FA                 i2u383_45 269A                 i2u480_40 28C8  
               i2u448_40 2A84                 i2u296_40 2274                 i2u368_40 2E6A  
               i2u384_40 26C0                 i2u288_40 36FC                 i2u376_40 3546  
               i2u392_40 084A                 i2u464_40 162E                 i2u456_40 13F6  
               i2u472_40 350A                 i2u480_41 28C4                 i2u296_41 2270  
               i2u368_41 2E66                 i2u384_41 26BC                 i2u288_41 36F8  
               i2u392_41 0846                 i2u464_41 162A                 i2u456_41 13F2  
               i2u472_41 3506                 i2u473_40 3826                 i2u481_40 28D8  
               i2u449_40 2A9A                 i2u297_40 2284                 i2u369_40 2E94  
               i2u385_40 2714                 i2u289_40 37CE                 i2u377_40 355C  
               i2u393_40 089A                 i2u465_40 166E                 i2u457_40 14CE  
               i2u473_41 3822                 i2u481_41 28D4                 i2u449_41 2A96  
               i2u297_41 2280                 i2u369_41 2E90                 i2u289_41 37CA  
               i2u377_41 3558                 i2u393_41 0896                 i2u465_41 166A  
               i2u457_41 14CA                 i2u385_45 270A                 i2u474_40 386A  
               i2u482_40 28E6                 i2u298_40 22C4                 i2u386_40 2730  
               i2u378_40 25C4                 i2u394_40 08A8                 i2u466_40 16B0  
               i2u458_40 14DE                 i2u474_41 3866                 i2u482_41 28E2  
               i2u298_41 22C0                 i2u386_41 272C                 i2u394_41 08A4  
               i2u466_41 16AC                 i2u458_41 14DA                 i2u378_45 25BA  
               i2u483_40 2920                 i2u475_40 27A0                 i2u299_40 2304  
               i2u387_40 276C                 i2u379_40 25F2                 i2u395_40 08BA  
               i2u467_40 175E                 i2u459_40 1504                 i2u483_41 291C  
               i2u475_41 279C                 i2u299_41 2300                 i2u387_41 2768  
               i2u379_41 25EE                 i2u395_41 08B6                 i2u467_41 175A  
               i2u459_41 1500                 i2u491_47 2B9C                 i2u484_40 292E  
               i2u476_40 27AE                 i2u388_40 379E                 i2u396_40 0902  
               i2u468_40 17C4                 i2u484_41 292A                 i2u476_41 27AA  
               i2u388_41 3798                 i2u396_41 08FE                 i2u468_41 17BE  
               i2u492_47 33F2                 i2u477_40 280A                 i2u389_40 37A0  
               i2u397_40 0930                 i2u469_40 17C6                 i2u477_41 2806  
               i2u397_41 092A                 i2u493_47 3404                 i2u478_40 2860  
               i2u398_40 0932                 i2u478_41 285C                 i2u494_47 3424  
               i2u479_40 28AA                 i2u399_40 094A                 i2u479_41 28A6  
               i2u399_41 0946                 i2u495_47 3436                 i2u496_47 345C  
               i2u497_47 346E                 i2u498_47 348E                 i2u499_47 34A0  
               _RCONbits 000FD0                _valor_adc 00CC                 _TMR0_ISR 0018  
            _LCD_Comando 3366                _vfpfcnvrt 13D2         __size_of_ADC_ISR 2BD2  
             _ADCON0bits 000FC2               _ADCON1bits 000FC1               _ADCON2bits 000FC0  
      ___wmul@multiplier 0001             _isspace$1416 0007               vfpfcnvrt@c 0057  
             vfpfcnvrt@f 0050              _INTCON2bits 000FF1                 __Hrparam 0000  
             vfprintf@ap 005C                 __Lrparam 0000               vfprintf@fp 0058  
       __size_of___fladd 04C0         __size_of___fldiv 039A         __size_of___awdiv 00C4  
       __size_of___flneg 0038         __size_of___awmod 00B0         __size_of___flmul 042A  
       __size_of___flsub 0046         __size_of___fltol 0106               ?_vfpfcnvrt 0040  
     ___fpclassifyf@F463 00BC               sprintf@fmt 009C                 ___xxtofl 278E  
       __size_of_isdigit 0038         __size_of_isspace 0052                 __ptext10 13D2  
               __ptext11 2EE2                 __ptext20 3920                 __ptext12 0822  
               __ptext21 257C                 __ptext13 3514                 __ptext30 21E2  
               __ptext22 2DE4                 __ptext14 36FE                 __ptext31 320C  
               __ptext23 2BDA                 __ptext15 3574                 __ptext40 383C  
               __ptext32 3148                 __ptext24 3674                 __ptext16 3082  
               __ptext41 3448                 __ptext33 2942                 __ptext25 18F8  
               __ptext17 37A6                 __ptext34 3622                 __ptext26 3736  
               __ptext18 36BA                 __ptext35 376E                 __ptext27 1DB8  
               __ptext19 2FB8                 __ptext36 38C2                 __ptext28 2CE0  
               __ptext37 278E                 __ptext29 32BC                 __ptext38 380C  
               __ptext39 33DA         __size_of_isupper 0038         __size_of_sprintf 0052  
       __size_of_tolower 0060               strcpy@dest 0001         __size_of_strncmp 00D6  
          __size_of_atoi 0190            __size_of_main 0018                 efgtoa@fp 0034  
               efgtoa@ne 0076               _LCD_Cadena 383C                 efgtoa@pp 0072  
               efgtoa@ou 0060     __size_of_Timer0_Init 0018                 int$flags 005F  
               _vfprintf 34B2    __end_ofi2_LCD_Comando 3448           _vfpfcnvrt$1351 004E  
         _vfpfcnvrt$1347 004C               _INTCONbits 000FF2                 isdigit@c 0001  
               intlevel1 0000                 intlevel2 0000                sprintf@ap 00A4  
               isspace@c 0001                strcpy@src 0003                 isupper@c 0001  
              strncmp@_l 0001                strncmp@_r 0003              efgtoa@nmode 007E  
            ??_vfpfcnvrt 0046                 sprintf@f 00A6                 tolower@c 0007  
               sprintf@s 009A   __size_of___fpclassifyf 00FE                 strncmp@l 0008  
               strncmp@n 0005                 strncmp@r 000A            ___fladd@signs 000D  
           ___fladd@aexp 000E             ___fladd@bexp 000F              ?_LCD_Cadena 0003  
